(dp1
S'output'
p2
S"<type 'exceptions.NameError'> name 'form' is not defined"
p3
sS'layer'
p4
S'/home/nikhil/itws2-project/web2py/applications/nikhil/views/default/my_activity.html'
p5
sS'code'
p6
S'response.write(\'    <link href="\', escape=False)\nresponse.write(URL(\'static\', \'css/js-image-slider.css\'))\nresponse.write(\'" rel="stylesheet" type="text/css" />\\n\\n    <link href="\', escape=False)\nresponse.write(URL(\'static\', \'css/generic.css\'))\nresponse.write(\'" rel="stylesheet" type="text/css" />\\n    <script src="\', escape=False)\nresponse.write(URL(\'static\', \'js/js-image-slider.js\'))\nresponse.write(\'"  type="text/javascript" ></script>\\n\\n<link href="\', escape=False)\nresponse.write(URL(\'static\', \'css/profile.css\'))\nresponse.write(\'" rel="stylesheet" type="text/css" />\\n<table id="profile">\\n <tr>\\n  <td colspan="2"><img id="profilepic" src="\', escape=False)\nresponse.write(URL(r=request,f=\'download\',args=[message["image"]]))\nresponse.write(\'" /></td></tr><tr>\\n  <td colspan="2"><b>\', escape=False)\nresponse.write(message.first_name)\nresponse.write(\' \', escape=False)\nresponse.write(message.last_name)\nresponse.write(\'</b></td></tr>\\n  <tr><td>Email:</td><td>\', escape=False)\nresponse.write(message.email)\nresponse.write(\'</td></tr>\\n  <tr><td>Address:</td><td>\', escape=False)\nresponse.write(message.address)\nresponse.write(\'</td></tr>\\n  <tr><td>City:</td><td>\', escape=False)\nresponse.write(message.city)\nresponse.write(\'</td></tr>\\n  <tr><td>Phone:</td><td>\', escape=False)\nresponse.write(message.phone)\nresponse.write("</td></tr>\\n   <tr><td><link href=\'http://fonts.googleapis.com/css?family=Nova+Square\' rel=\'stylesheet\' type=\'text/css\'>\\n", escape=False)\nresponse.write(form.custom.begin)\nresponse.write(\'\\n<style>\\ninput{\\ncolor:brown;\\nborder:0;\\npadding:20px;\\nwidth:200px;\\n}\\n#x{\\nposition:fixed;\\ntop:20%;\\nleft:30%;\\nbackground-color:rgba(255,255,255,0.7);\\nwidth:50%;\\nheight:30%;\\ntext-align:left;\\npadding-left:40px;\\nfont-family: \\\'Nova Square\\\', cursive;\\ncolor:grey;\\nborder-radius:5%;\\n}\\n</style>\\n<div id="x">browse your image here ... \', escape=False)\nresponse.write(form.custom.widget.picture)\nresponse.write(\'<br>\\n\', escape=False)\nresponse.write(form.custom.submit)\nresponse.write(\'\\n\', escape=False)\nresponse.write(form.custom.end)\nresponse.write(\'\\n</div>\\n</td></tr>\\n\\n\\n \\n</table>\\n<div id="outer">\\n   <div id="inside">\\n\\n<table id="comments">\\n<tr><td colspan="3" style="text-align:center;">Activity so far(Restaurants)</td></tr>\\n\', escape=False)\ntempvar=0\nresponse.write(\'\\n<tr>\\n\', escape=False)\nfor i in comment_list:\n    response.write(\'\\n<td>\\n<a href="\', escape=False)\n    response.write(URL(r=request,f=\'entry\',args=i[\'place_id\']))\n    response.write(\'"><font size="4">\', escape=False)\n    response.write(i["place"])\n    response.write(\'</font></a>\\n<h4>commented <i>as \', escape=False)\n    response.write(i["commenti"])\n    response.write(\'</i></h4>\\n<h4>rated \', escape=False)\n    response.write(i["review"])\n    response.write(\'</h4>\\n \\n</td>\\n\', escape=False)\n    tempvar+=1\n    response.write(\'\\n\', escape=False)\n    if tempvar%1==0:\n        response.write(\'\\n</tr><tr>\\n\', escape=False)\n        pass\n    response.write(\'\\n\', escape=False)\n    pass\nresponse.write(\'\\n</table>\\n    </div>\\n    </div>\\n\\n<div id="outer1">\\n  <div id="inside1">\\n<table id="comment">\\n<tr><td colspan="3" style="text-align:center;">Activity so far(Movies)</td></tr>\\n\', escape=False)\ntempvar=0\nresponse.write(\'\\n<tr>\\n\', escape=False)\nfor i in commen_list:\n    response.write(\'\\n<td>\\n<a href="\', escape=False)\n    response.write(URL(r=request,f=\'entry\',args=i[\'place_id\']))\n    response.write(\'"><font size="4">\', escape=False)\n    response.write(i["place"])\n    response.write(\'</font></a>\\n<h4>commented <i>as \', escape=False)\n    response.write(i["commenti"])\n    response.write(\'</i></h4>\\n<h4>rated \', escape=False)\n    response.write(i["review"])\n    response.write(\'</h4>\\n \\n</td>\\n\', escape=False)\n    tempvar+=1\n    response.write(\'\\n\', escape=False)\n    if tempvar%1==0:\n        response.write(\'\\n</tr><tr>\\n\', escape=False)\n        pass\n    response.write(\'\\n\', escape=False)\n    pass\nresponse.write(\'\\n</table>\\n\\n</div>\\n</div>\\n\\n\\n\\n\\n<div id="a4">\\n\\n    <div id="sliderFrame">\\n        <div id="slider">                \\n      \', escape=False)\nfor i in photo:\n    response.write(\'\\n             <img class="rimg" src="\', escape=False)\n    response.write(URL(r=request,f=\'download\',args=[i["picture"]]))\n    response.write(\'" alt="\', escape=False)\n    response.write(i["place"])\n    response.write(\'"/>\\n      \', escape=False)\n    pass\nresponse.write(\'\\n         </div>\\n       \\n    </div>\\n      \\n</div>\\n\\n\\n\\n\\n\\n\\n\\n\\n\', escape=False)\nresponse.write(\'<link href=\\\'http://fonts.googleapis.com/css?family=Sniglet\\\' rel=\\\'stylesheet\\\' type=\\\'text/css\\\'>\\n<link href="\', escape=False)\nresponse.write(URL(\'static\', \'css/nav.css\'))\nresponse.write(\'" rel="stylesheet" type="text/css" />\\n<table id="navigation" > \\n  <tr>\\n    <td><a href ="\', escape=False)\nresponse.write(URL(r=request,f=\'my_activity\'))\nresponse.write(\'">Check your activity</a></td>\\n\\n    \', escape=False)\nif not auth.user:\n    response.write(\'\\n     <td>\', escape=False)\n    response.write(A(\'Login\', _href=URL(\'default\', \'user\', args=\'login\',\n    vars=dict(_next=URL(args=request.args, vars=request.vars)))))\n    response.write(\'</td>\\n\\n     <td>\', escape=False)\n    response.write(A(\'register\', _href=URL(\'default\', \'user\', args=\'register\',\n    vars=dict(_next=URL(args=request.args, vars=request.vars)))))\n    response.write(\'</td>\\n\\n    \', escape=False)\nelse:\n    response.write(\'\\n    <td><a href ="\', escape=False)\n    response.write(URL(r=request,f=\'my_activity\'))\n    response.write(\'">Welcome \', escape=False)\n    response.write(auth.user.first_name)\n    response.write(\'</a></td>\\n     <td>\', escape=False)\n    response.write(A(\'Logout\', _href=URL(\'default\', \'user\', args=\'logout\',\n    vars=dict(_next=URL(args=request.args, vars=request.vars)))))\n    response.write(\'</td>\\n\\n    \', escape=False)\n    pass\nresponse.write(\'\\n  </tr>\\n</table>\\n<div id="logo"><a href="http://127.0.0.1:8000/nikhil/default/index"><img src="\', escape=False)\nresponse.write(URL(\'static\', \'images/LOGO.png\'))\nresponse.write(\'"></a></div>\\n\\n\', escape=False)'
p7
sS'snapshot'
p8
(dp9
S'exception'
p10
(dp11
S'__hash__'
p12
S"<method-wrapper '__hash__' of exceptions.NameError object>"
p13
sS'__setattr__'
p14
S"<method-wrapper '__setattr__' of exceptions.NameError object>"
p15
sS'__reduce_ex__'
p16
S'<built-in method __reduce_ex__ of exceptions.NameError object>'
p17
sS'__getslice__'
p18
S"<method-wrapper '__getslice__' of exceptions.NameError object>"
p19
sS'__getitem__'
p20
S"<method-wrapper '__getitem__' of exceptions.NameError object>"
p21
sS'__setstate__'
p22
S'<built-in method __setstate__ of exceptions.NameError object>'
p23
sS'args'
p24
S'("name \'form\' is not defined",)'
p25
sS'__reduce__'
p26
S'<built-in method __reduce__ of exceptions.NameError object>'
p27
sS'__str__'
p28
S"<method-wrapper '__str__' of exceptions.NameError object>"
p29
sS'__format__'
p30
S'<built-in method __format__ of exceptions.NameError object>'
p31
sS'__getattribute__'
p32
S"<method-wrapper '__getattribute__' of exceptions.NameError object>"
p33
sS'__class__'
p34
S"<type 'exceptions.NameError'>"
p35
sS'__unicode__'
p36
S'<built-in method __unicode__ of exceptions.NameError object>'
p37
sS'__delattr__'
p38
S"<method-wrapper '__delattr__' of exceptions.NameError object>"
p39
sS'__subclasshook__'
p40
S'<built-in method __subclasshook__ of type object>'
p41
sS'__repr__'
p42
S"<method-wrapper '__repr__' of exceptions.NameError object>"
p43
sS'__dict__'
p44
S'{}'
p45
sS'__sizeof__'
p46
S'<built-in method __sizeof__ of exceptions.NameError object>'
p47
sS'__doc__'
p48
S"'Name not found globally.'"
p49
sS'__init__'
p50
S"<method-wrapper '__init__' of exceptions.NameError object>"
p51
sS'__new__'
p52
S'<built-in method __new__ of type object>'
p53
ssS'evalue'
p54
S"name 'form' is not defined"
p55
sS'request'
p56
cgluon.html
XML_unpickle
p57
(S's\xa1T\x00\x00<div><table><tr><td style="font-weight:bold;vertical-align:top;">ajax</td><td style="vertical-align:top;">:</td><td><div>False</div></td></tr><tr><td style="font-weight:bold;vertical-align:top;">application</td><td style="vertical-align:top;">:</td><td><div>nikhil</div></td></tr><tr><td style="font-weight:bold;vertical-align:top;">args</td><td style="vertical-align:top;">:</td><td><div><table></table></div></td></tr><tr><td style="font-weight:bold;vertical-align:top;">cid</td><td style="vertical-align:top;">:</td><td><div>None</div></td></tr><tr><td style="font-weight:bold;vertical-align:top;">client</td><td style="vertical-align:top;">:</td><td><div>127.0.0.1</div></td></tr><tr><td style="font-weight:bold;vertical-align:top;">controller</td><td style="vertical-align:top;">:</td><td><div>default</div></td></tr><tr><td style="font-weight:bold;vertical-align:top;">cookies</td><td style="vertical-align:top;">:</td><td><div><table><tr><td style="font-weight:bold;vertical-align:top;">session_id_admin</td><td style="vertical-align:top;">:</td><td><div>127.0.0.1-1997446b-06b9-499e-a103-faa1b9ee9eba<table><tr><td style="font-weight:bold;vertical-align:top;">comment</td><td style="vertical-align:top;">:</td><td><div></div></td></tr><tr><td style="font-weight:bold;vertical-align:top;">domain</td><td style="vertical-align:top;">:</td><td><div></div></td></tr><tr><td style="font-weight:bold;vertical-align:top;">expires</td><td style="vertical-align:top;">:</td><td><div></div></td></tr><tr><td style="font-weight:bold;vertical-align:top;">httponly</td><td style="vertical-align:top;">:</td><td><div></div></td></tr><tr><td style="font-weight:bold;vertical-align:top;">max-age</td><td style="vertical-align:top;">:</td><td><div></div></td></tr><tr><td style="font-weight:bold;vertical-align:top;">path</td><td style="vertical-align:top;">:</td><td><div></div></td></tr><tr><td style="font-weight:bold;vertical-align:top;">secure</td><td style="vertical-align:top;">:</td><td><div></div></td></tr><tr><td style="font-weight:bold;vertical-align:top;">version</td><td style="vertical-align:top;">:</td><td><div></div></td></tr></table></div></td></tr><tr><td style="font-weight:bold;vertical-align:top;">session_id_nikhil</td><td style="vertical-align:top;">:</td><td><div>127.0.0.1-2f003b5f-997c-40d5-91fc-7fea7ae7b96c<table><tr><td style="font-weight:bold;vertical-align:top;">comment</td><td style="vertical-align:top;">:</td><td><div></div></td></tr><tr><td style="font-weight:bold;vertical-align:top;">domain</td><td style="vertical-align:top;">:</td><td><div></div></td></tr><tr><td style="font-weight:bold;vertical-align:top;">expires</td><td style="vertical-align:top;">:</td><td><div></div></td></tr><tr><td style="font-weight:bold;vertical-align:top;">httponly</td><td style="vertical-align:top;">:</td><td><div></div></td></tr><tr><td style="font-weight:bold;vertical-align:top;">max-age</td><td style="vertical-align:top;">:</td><td><div></div></td></tr><tr><td style="font-weight:bold;vertical-align:top;">path</td><td style="vertical-align:top;">:</td><td><div></div></td></tr><tr><td style="font-weight:bold;vertical-align:top;">secure</td><td style="vertical-align:top;">:</td><td><div></div></td></tr><tr><td style="font-weight:bold;vertical-align:top;">version</td><td style="vertical-align:top;">:</td><td><div></div></td></tr></table></div></td></tr></table></div></td></tr><tr><td style="font-weight:bold;vertical-align:top;">env</td><td style="vertical-align:top;">:</td><td><div><table><tr><td style="font-weight:bold;vertical-align:top;">HTTP_ACCEPT</td><td style="vertical-align:top;">:</td><td><div>text/html,application/xhtml+xml,application/xml;q=0.9,*/*;q=0.8</div></td></tr><tr><td style="font-weight:bold;vertical-align:top;">HTTP_ACCEPT_ENCODING</td><td style="vertical-align:top;">:</td><td><div>gzip, deflate</div></td></tr><tr><td style="font-weight:bold;vertical-align:top;">HTTP_ACCEPT_LANGUAGE</td><td style="vertical-align:top;">:</td><td><div>en-US,en;q=0.5</div></td></tr><tr><td style="font-weight:bold;vertical-align:top;">HTTP_CONNECTION</td><td style="vertical-align:top;">:</td><td><div>keep-alive</div></td></tr><tr><td style="font-weight:bold;vertical-align:top;">HTTP_COOKIE</td><td style="vertical-align:top;">:</td><td><div>session_id_nikhil=127.0.0.1-2f003b5f-997c-40d5-91fc-7fea7ae7b96c; session_id_admin=127.0.0.1-1997446b-06b9-499e-a103-faa1b9ee9eba</div></td></tr><tr><td style="font-weight:bold;vertical-align:top;">HTTP_HOST</td><td style="vertical-align:top;">:</td><td><div>127.0.0.1:8000</div></td></tr><tr><td style="font-weight:bold;vertical-align:top;">HTTP_REFERER</td><td style="vertical-align:top;">:</td><td><div>http://127.0.0.1:8000/nikhil/default/user/login?_next=/nikhil/default/my_activity</div></td></tr><tr><td style="font-weight:bold;vertical-align:top;">HTTP_USER_AGENT</td><td style="vertical-align:top;">:</td><td><div>Mozilla/5.0 (X11; Ubuntu; Linux x86_64; rv:28.0) Gecko/20100101 Firefox/28.0</div></td></tr><tr><td style="font-weight:bold;vertical-align:top;">PATH_INFO</td><td style="vertical-align:top;">:</td><td><div>/nikhil/default/my_activity</div></td></tr><tr><td style="font-weight:bold;vertical-align:top;">QUERY_STRING</td><td style="vertical-align:top;">:</td><td><div></div></td></tr><tr><td style="font-weight:bold;vertical-align:top;">REMOTE_ADDR</td><td style="vertical-align:top;">:</td><td><div>127.0.0.1</div></td></tr><tr><td style="font-weight:bold;vertical-align:top;">REMOTE_PORT</td><td style="vertical-align:top;">:</td><td><div>46139</div></td></tr><tr><td style="font-weight:bold;vertical-align:top;">REQUEST_METHOD</td><td style="vertical-align:top;">:</td><td><div>GET</div></td></tr><tr><td style="font-weight:bold;vertical-align:top;">SCRIPT_NAME</td><td style="vertical-align:top;">:</td><td><div></div></td></tr><tr><td style="font-weight:bold;vertical-align:top;">SERVER_NAME</td><td style="vertical-align:top;">:</td><td><div>Inspiron-3537</div></td></tr><tr><td style="font-weight:bold;vertical-align:top;">SERVER_PORT</td><td style="vertical-align:top;">:</td><td><div>8000</div></td></tr><tr><td style="font-weight:bold;vertical-align:top;">SERVER_PROTOCOL</td><td style="vertical-align:top;">:</td><td><div>HTTP/1.1</div></td></tr><tr><td style="font-weight:bold;vertical-align:top;">SERVER_SOFTWARE</td><td style="vertical-align:top;">:</td><td><div>Rocket 1.2.6</div></td></tr><tr><td style="font-weight:bold;vertical-align:top;">app_folders</td><td style="vertical-align:top;">:</td><td><div>set([&#x27;/home/nikhil/itws2-project/web2py/applications/admin/&#x27;, &#x27;/home/nikhil/itws2-project/web2py/applications/nikhil/&#x27;])</div></td></tr><tr><td style="font-weight:bold;vertical-align:top;">applications_parent</td><td style="vertical-align:top;">:</td><td><div>/home/nikhil/itws2-project/web2py</div></td></tr><tr><td style="font-weight:bold;vertical-align:top;">cmd_args</td><td style="vertical-align:top;">:</td><td><div><table></table></div></td></tr><tr><td style="font-weight:bold;vertical-align:top;">cmd_options</td><td style="vertical-align:top;">:</td><td><div>&lt;Values at 0x2caf2d8: {&#x27;verbose&#x27;: False, &#x27;ip&#x27;: &#x27;127.0.0.1&#x27;, &#x27;debuglevel&#x27;: 30, &#x27;with_scheduler&#x27;: False, &#x27;ips&#x27;: [&#x27;127.0.1.1&#x27;], &#x27;shutdown_timeout&#x27;: 5, &#x27;taskbar&#x27;: False, &#x27;with_coverage&#x27;: False, &#x27;port&#x27;: 8000, &#x27;maxthreads&#x27;: None, &#x27;softcron&#x27;: False, &#x27;server_name&#x27;: &#x27;Inspiron-3537&#x27;, &#x27;bpython&#x27;: False, &#x27;nogui&#x27;: True, &#x27;pid_filename&#x27;: &#x27;httpserver.pid&#x27;, &#x27;extcron&#x27;: False, &#x27;runcron&#x27;: False, &#x27;run_system_tests&#x27;: False, &#x27;test&#x27;: None, &#x27;folder&#x27;: &#x27;/home/nikhil/itws2-project/web2py&#x27;, &#x27;config&#x27;: &#x27;&#x27;, &#x27;minthreads&#x27;: None, &#x27;shell&#x27;: None, &#x27;run&#x27;: &#x27;&#x27;, &#x27;log_filename&#x27;: &#x27;httpserver.log&#x27;, &#x27;profiler_dir&#x27;: None, &#x27;args&#x27;: [&#x27;&#x27;], &#x27;socket_timeout&#x27;: 5, &#x27;ssl_ca_certificate&#x27;: None, &#x27;scheduler&#x27;: None, &#x27;interfaces&#x27;: None, &#x27;ssl_private_key&#x27;: &#x27;&#x27;, &#x27;scheduler_groups&#x27;: None, &#x27;password&#x27;: &#x27;nik123&#x27;, &#x27;request_queue_size&#x27;: 5, &#x27;ssl_certificate&#x27;: &#x27;&#x27;, &#x27;cronjob&#x27;: False, &#x27;numthreads&#x27;: None, &#x27;quiet&#x27;: False, &#x27;import_models&#x27;: False, &#x27;timeout&#x27;: 10, &#x27;plain&#x27;: False, &#x27;nobanner&#x27;: False}&gt;</div></td></tr><tr><td style="font-weight:bold;vertical-align:top;">db_sessions</td><td style="vertical-align:top;">:</td><td><div>set([])</div></td></tr><tr><td style="font-weight:bold;vertical-align:top;">debugging</td><td style="vertical-align:top;">:</td><td><div>False</div></td></tr><tr><td style="font-weight:bold;vertical-align:top;">gluon_parent</td><td style="vertical-align:top;">:</td><td><div>/home/nikhil/itws2-project/web2py</div></td></tr><tr><td style="font-weight:bold;vertical-align:top;">http_accept</td><td style="vertical-align:top;">:</td><td><div>text/html,application/xhtml+xml,application/xml;q=0.9,*/*;q=0.8</div></td></tr><tr><td style="font-weight:bold;vertical-align:top;">http_accept_encoding</td><td style="vertical-align:top;">:</td><td><div>gzip, deflate</div></td></tr><tr><td style="font-weight:bold;vertical-align:top;">http_accept_language</td><td style="vertical-align:top;">:</td><td><div>en-US,en;q=0.5</div></td></tr><tr><td style="font-weight:bold;vertical-align:top;">http_connection</td><td style="vertical-align:top;">:</td><td><div>keep-alive</div></td></tr><tr><td style="font-weight:bold;vertical-align:top;">http_cookie</td><td style="vertical-align:top;">:</td><td><div>session_id_nikhil=127.0.0.1-2f003b5f-997c-40d5-91fc-7fea7ae7b96c; session_id_admin=127.0.0.1-1997446b-06b9-499e-a103-faa1b9ee9eba</div></td></tr><tr><td style="font-weight:bold;vertical-align:top;">http_host</td><td style="vertical-align:top;">:</td><td><div>127.0.0.1:8000</div></td></tr><tr><td style="font-weight:bold;vertical-align:top;">http_referer</td><td style="vertical-align:top;">:</td><td><div>http://127.0.0.1:8000/nikhil/default/user/login?_next=/nikhil/default/my_activity</div></td></tr><tr><td style="font-weight:bold;vertical-align:top;">http_user_agent</td><td style="vertical-align:top;">:</td><td><div>Mozilla/5.0 (X11; Ubuntu; Linux x86_64; rv:28.0) Gecko/20100101 Firefox/28.0</div></td></tr><tr><td style="font-weight:bold;vertical-align:top;">is_jython</td><td style="vertical-align:top;">:</td><td><div>False</div></td></tr><tr><td style="font-weight:bold;vertical-align:top;">is_pypy</td><td style="vertical-align:top;">:</td><td><div>False</div></td></tr><tr><td style="font-weight:bold;vertical-align:top;">is_source</td><td style="vertical-align:top;">:</td><td><div>True</div></td></tr><tr><td style="font-weight:bold;vertical-align:top;">local_hosts</td><td style="vertical-align:top;">:</td><td><div><table><tr><td><div>Inspiron-3537</div></td></tr><tr><td><div>::1</div></td></tr><tr><td><div>127.0.1.1</div></td></tr><tr><td><div>::ffff:127.0.0.1</div></td></tr><tr><td><div>127.0.0.1</div></td></tr></table></div></td></tr><tr><td style="font-weight:bold;vertical-align:top;">path_info</td><td style="vertical-align:top;">:</td><td><div>/nikhil/default/my_activity</div></td></tr><tr><td style="font-weight:bold;vertical-align:top;">query_string</td><td style="vertical-align:top;">:</td><td><div></div></td></tr><tr><td style="font-weight:bold;vertical-align:top;">remote_addr</td><td style="vertical-align:top;">:</td><td><div>127.0.0.1</div></td></tr><tr><td style="font-weight:bold;vertical-align:top;">remote_port</td><td style="vertical-align:top;">:</td><td><div>46139</div></td></tr><tr><td style="font-weight:bold;vertical-align:top;">request_method</td><td style="vertical-align:top;">:</td><td><div>GET</div></td></tr><tr><td style="font-weight:bold;vertical-align:top;">request_uri</td><td style="vertical-align:top;">:</td><td><div>/nikhil/default/my_activity</div></td></tr><tr><td style="font-weight:bold;vertical-align:top;">script_name</td><td style="vertical-align:top;">:</td><td><div></div></td></tr><tr><td style="font-weight:bold;vertical-align:top;">server_name</td><td style="vertical-align:top;">:</td><td><div>Inspiron-3537</div></td></tr><tr><td style="font-weight:bold;vertical-align:top;">server_port</td><td style="vertical-align:top;">:</td><td><div>8000</div></td></tr><tr><td style="font-weight:bold;vertical-align:top;">server_protocol</td><td style="vertical-align:top;">:</td><td><div>HTTP/1.1</div></td></tr><tr><td style="font-weight:bold;vertical-align:top;">server_software</td><td style="vertical-align:top;">:</td><td><div>Rocket 1.2.6</div></td></tr><tr><td style="font-weight:bold;vertical-align:top;">web2py_path</td><td style="vertical-align:top;">:</td><td><div>/home/nikhil/itws2-project/web2py</div></td></tr><tr><td style="font-weight:bold;vertical-align:top;">web2py_version</td><td style="vertical-align:top;">:</td><td><div>2.9.4-stable+timestamp.2014.03.05.04.44.09</div></td></tr><tr><td style="font-weight:bold;vertical-align:top;">wsgi.errors</td><td style="vertical-align:top;">:</td><td><div>&lt;open file &#x27;&lt;stderr&gt;&#x27;, mode &#x27;w&#x27; at 0x7fd601cf51e0&gt;</div></td></tr><tr><td style="font-weight:bold;vertical-align:top;">wsgi.file_wrapper</td><td style="vertical-align:top;">:</td><td><div>&lt;class wsgiref.util.FileWrapper at 0x3731600&gt;</div></td></tr><tr><td style="font-weight:bold;vertical-align:top;">wsgi.input</td><td style="vertical-align:top;">:</td><td><div>&lt;socket._fileobject object at 0x7fd5f8514650&gt;</div></td></tr><tr><td style="font-weight:bold;vertical-align:top;">wsgi.multiprocess</td><td style="vertical-align:top;">:</td><td><div>False</div></td></tr><tr><td style="font-weight:bold;vertical-align:top;">wsgi.multithread</td><td style="vertical-align:top;">:</td><td><div>True</div></td></tr><tr><td style="font-weight:bold;vertical-align:top;">wsgi.run_once</td><td style="vertical-align:top;">:</td><td><div>False</div></td></tr><tr><td style="font-weight:bold;vertical-align:top;">wsgi.url_scheme</td><td style="vertical-align:top;">:</td><td><div>http</div></td></tr><tr><td style="font-weight:bold;vertical-align:top;">wsgi.version</td><td style="vertical-align:top;">:</td><td><div><table><tr><td><div>1</div></td></tr><tr><td><div>0</div></td></tr></table></div></td></tr><tr><td style="font-weight:bold;vertical-align:top;">wsgi_errors</td><td style="vertical-align:top;">:</td><td><div>&lt;open file &#x27;&lt;stderr&gt;&#x27;, mode &#x27;w&#x27; at 0x7fd601cf51e0&gt;</div></td></tr><tr><td style="font-weight:bold;vertical-align:top;">wsgi_file_wrapper</td><td style="vertical-align:top;">:</td><td><div>&lt;class wsgiref.util.FileWrapper at 0x3731600&gt;</div></td></tr><tr><td style="font-weight:bold;vertical-align:top;">wsgi_input</td><td style="vertical-align:top;">:</td><td><div>&lt;socket._fileobject object at 0x7fd5f8514650&gt;</div></td></tr><tr><td style="font-weight:bold;vertical-align:top;">wsgi_multiprocess</td><td style="vertical-align:top;">:</td><td><div>False</div></td></tr><tr><td style="font-weight:bold;vertical-align:top;">wsgi_multithread</td><td style="vertical-align:top;">:</td><td><div>True</div></td></tr><tr><td style="font-weight:bold;vertical-align:top;">wsgi_run_once</td><td style="vertical-align:top;">:</td><td><div>False</div></td></tr><tr><td style="font-weight:bold;vertical-align:top;">wsgi_url_scheme</td><td style="vertical-align:top;">:</td><td><div>http</div></td></tr><tr><td style="font-weight:bold;vertical-align:top;">wsgi_version</td><td style="vertical-align:top;">:</td><td><div><table><tr><td><div>1</div></td></tr><tr><td><div>0</div></td></tr></table></div></td></tr></table></div></td></tr><tr><td style="font-weight:bold;vertical-align:top;">extension</td><td style="vertical-align:top;">:</td><td><div>html</div></td></tr><tr><td style="font-weight:bold;vertical-align:top;">folder</td><td style="vertical-align:top;">:</td><td><div>/home/nikhil/itws2-project/web2py/applications/nikhil/</div></td></tr><tr><td style="font-weight:bold;vertical-align:top;">function</td><td style="vertical-align:top;">:</td><td><div>my_activity</div></td></tr><tr><td style="font-weight:bold;vertical-align:top;">global_settings</td><td style="vertical-align:top;">:</td><td><div><table><tr><td style="font-weight:bold;vertical-align:top;">app_folders</td><td style="vertical-align:top;">:</td><td><div>set([&#x27;/home/nikhil/itws2-project/web2py/applications/admin/&#x27;, &#x27;/home/nikhil/itws2-project/web2py/applications/nikhil/&#x27;])</div></td></tr><tr><td style="font-weight:bold;vertical-align:top;">applications_parent</td><td style="vertical-align:top;">:</td><td><div>/home/nikhil/itws2-project/web2py</div></td></tr><tr><td style="font-weight:bold;vertical-align:top;">cmd_args</td><td style="vertical-align:top;">:</td><td><div><table></table></div></td></tr><tr><td style="font-weight:bold;vertical-align:top;">cmd_options</td><td style="vertical-align:top;">:</td><td><div>&lt;Values at 0x2caf2d8: {&#x27;verbose&#x27;: False, &#x27;ip&#x27;: &#x27;127.0.0.1&#x27;, &#x27;debuglevel&#x27;: 30, &#x27;with_scheduler&#x27;: False, &#x27;ips&#x27;: [&#x27;127.0.1.1&#x27;], &#x27;shutdown_timeout&#x27;: 5, &#x27;taskbar&#x27;: False, &#x27;with_coverage&#x27;: False, &#x27;port&#x27;: 8000, &#x27;maxthreads&#x27;: None, &#x27;softcron&#x27;: False, &#x27;server_name&#x27;: &#x27;Inspiron-3537&#x27;, &#x27;bpython&#x27;: False, &#x27;nogui&#x27;: True, &#x27;pid_filename&#x27;: &#x27;httpserver.pid&#x27;, &#x27;extcron&#x27;: False, &#x27;runcron&#x27;: False, &#x27;run_system_tests&#x27;: False, &#x27;test&#x27;: None, &#x27;folder&#x27;: &#x27;/home/nikhil/itws2-project/web2py&#x27;, &#x27;config&#x27;: &#x27;&#x27;, &#x27;minthreads&#x27;: None, &#x27;shell&#x27;: None, &#x27;run&#x27;: &#x27;&#x27;, &#x27;log_filename&#x27;: &#x27;httpserver.log&#x27;, &#x27;profiler_dir&#x27;: None, &#x27;args&#x27;: [&#x27;&#x27;], &#x27;socket_timeout&#x27;: 5, &#x27;ssl_ca_certificate&#x27;: None, &#x27;scheduler&#x27;: None, &#x27;interfaces&#x27;: None, &#x27;ssl_private_key&#x27;: &#x27;&#x27;, &#x27;scheduler_groups&#x27;: None, &#x27;password&#x27;: &#x27;nik123&#x27;, &#x27;request_queue_size&#x27;: 5, &#x27;ssl_certificate&#x27;: &#x27;&#x27;, &#x27;cronjob&#x27;: False, &#x27;numthreads&#x27;: None, &#x27;quiet&#x27;: False, &#x27;import_models&#x27;: False, &#x27;timeout&#x27;: 10, &#x27;plain&#x27;: False, &#x27;nobanner&#x27;: False}&gt;</div></td></tr><tr><td style="font-weight:bold;vertical-align:top;">db_sessions</td><td style="vertical-align:top;">:</td><td><div>set([])</div></td></tr><tr><td style="font-weight:bold;vertical-align:top;">debugging</td><td style="vertical-align:top;">:</td><td><div>False</div></td></tr><tr><td style="font-weight:bold;vertical-align:top;">gluon_parent</td><td style="vertical-align:top;">:</td><td><div>/home/nikhil/itws2-project/web2py</div></td></tr><tr><td style="font-weight:bold;vertical-align:top;">is_jython</td><td style="vertical-align:top;">:</td><td><div>False</div></td></tr><tr><td style="font-weight:bold;vertical-align:top;">is_pypy</td><td style="vertical-align:top;">:</td><td><div>False</div></td></tr><tr><td style="font-weight:bold;vertical-align:top;">is_source</td><td style="vertical-align:top;">:</td><td><div>True</div></td></tr><tr><td style="font-weight:bold;vertical-align:top;">local_hosts</td><td style="vertical-align:top;">:</td><td><div><table><tr><td><div>Inspiron-3537</div></td></tr><tr><td><div>::1</div></td></tr><tr><td><div>127.0.1.1</div></td></tr><tr><td><div>::ffff:127.0.0.1</div></td></tr><tr><td><div>127.0.0.1</div></td></tr></table></div></td></tr><tr><td style="font-weight:bold;vertical-align:top;">web2py_version</td><td style="vertical-align:top;">:</td><td><div>2.9.4-stable+timestamp.2014.03.05.04.44.09</div></td></tr></table></div></td></tr><tr><td style="font-weight:bold;vertical-align:top;">is_https</td><td style="vertical-align:top;">:</td><td><div>False</div></td></tr><tr><td style="font-weight:bold;vertical-align:top;">is_local</td><td style="vertical-align:top;">:</td><td><div>True</div></td></tr><tr><td style="font-weight:bold;vertical-align:top;">is_restful</td><td style="vertical-align:top;">:</td><td><div>False</div></td></tr><tr><td style="font-weight:bold;vertical-align:top;">now</td><td style="vertical-align:top;">:</td><td><div>datetime.datetime(2014, 4, 25, 22, 36, 59, 379881)</div></td></tr><tr><td style="font-weight:bold;vertical-align:top;">raw_args</td><td style="vertical-align:top;">:</td><td><div></div></td></tr><tr><td style="font-weight:bold;vertical-align:top;">raw_extension</td><td style="vertical-align:top;">:</td><td><div>None</div></td></tr><tr><td style="font-weight:bold;vertical-align:top;">url</td><td style="vertical-align:top;">:</td><td><div>/nikhil/default/my_activity</div></td></tr><tr><td style="font-weight:bold;vertical-align:top;">utcnow</td><td style="vertical-align:top;">:</td><td><div>datetime.datetime(2014, 4, 25, 17, 6, 59, 379907)</div></td></tr><tr><td style="font-weight:bold;vertical-align:top;">uuid</td><td style="vertical-align:top;">:</td><td><div>nikhil/127.0.0.1.2014-04-25.22-36-59.00552882-ce47-458b-8e7d-3139eafe3a41</div></td></tr><tr><td style="font-weight:bold;vertical-align:top;">wsgi</td><td style="vertical-align:top;">:</td><td><div>&lt;gluon.main.LazyWSGI object at 0x7fd5ec0c7090&gt;</div></td></tr></table></div>'
tRp58
sS'frames'
p59
(lp60
(dp61
S'file'
p62
S'/home/nikhil/itws2-project/web2py/gluon/restricted.py'
p63
sS'dump'
p64
(dp65
S'environment'
p66
S"{'A': <class 'gluon.html.A'>, 'ANY_OF': <class 'gluon.validators.ANY_OF'>, 'Auth': <class 'gluon.tools.Auth'>, 'B': <class 'gluon.html.B'>, 'BEAUTIFY': <class 'gluon.html.BEAUTIFY'>, 'BODY': <class 'gluon.html.BODY'>, 'BR': <class 'gluon.html.BR'>, 'BUTTON': <class 'gluon.html.BUTTON'>, 'CAT': <class 'gluon.html.CAT'>, 'CENTER': <class 'gluon.html.CENTER'>, ...}"
p67
sS'ccode'
p68
S'<code object <module> at 0x7fd5cc25a930, file "/...s/nikhil/views/default/my_activity.html", line 1>'
p69
ssS'lnum'
p70
I217
sS'lines'
p71
(dp72
I212
S'    try:'
p73
sI213
S'        if isinstance(code, types.CodeType):'
p74
sI214
S'            ccode = code'
p75
sI215
S'        else:'
p76
sI216
S'            ccode = compile2(code, layer)'
p77
sI217
S'        exec ccode in environment'
p78
sI218
S'    except HTTP:'
p79
sI219
S'        raise'
p80
sI220
S'    except RestrictedError:'
p81
sI221
S'        # do not encapsulate (obfuscate) the original RestrictedError'
p82
ssS'call'
p83
S'(code=\'response.write(\\\'    <link href="\\\', escape=False)...\\nresponse.write(\\\'"></a></div>\\\\n\\\\n\\\', escape=False)\', environment={\'A\': <class \'gluon.html.A\'>, \'ANY_OF\': <class \'gluon.validators.ANY_OF\'>, \'Auth\': <class \'gluon.tools.Auth\'>, \'B\': <class \'gluon.html.B\'>, \'BEAUTIFY\': <class \'gluon.html.BEAUTIFY\'>, \'BODY\': <class \'gluon.html.BODY\'>, \'BR\': <class \'gluon.html.BR\'>, \'BUTTON\': <class \'gluon.html.BUTTON\'>, \'CAT\': <class \'gluon.html.CAT\'>, \'CENTER\': <class \'gluon.html.CENTER\'>, ...}, layer=\'/home/nikhil/itws2-project/web2py/applications/nikhil/views/default/my_activity.html\')'
p84
sS'func'
p85
S'restricted'
p86
sa(dp87
g62
S'/home/nikhil/itws2-project/web2py/applications/nikhil/views/default/my_activity.html'
p88
sg64
(dp89
S'position'
p90
S'undefined'
p91
sS'fixed'
p92
g91
ssg70
I24
sg71
(dp93
I32
S'tempvar=0'
p94
sI33
S"response.write('\\n<tr>\\n', escape=False)"
p95
sI34
S'for i in comment_list:'
p96
sI15
S"response.write('</b></td></tr>\\n  <tr><td>Email:</td><td>', escape=False)"
p97
sI16
S'response.write(message.email)'
p98
sI17
S"response.write('</td></tr>\\n  <tr><td>Address:</td><td>', escape=False)"
p99
sI18
S'response.write(message.address)'
p100
sI19
S"response.write('</td></tr>\\n  <tr><td>City:</td><td>', escape=False)"
p101
sI20
S'response.write(message.city)'
p102
sI21
S"response.write('</td></tr>\\n  <tr><td>Phone:</td><td>', escape=False)"
p103
sI22
S'response.write(message.phone)'
p104
sI23
S'response.write("</td></tr>\\n   <tr><td><link href=\'http://fonts.googleapis.com/css?family=Nova+Square\' rel=\'stylesheet\' type=\'text/css\'>\\n", escape=False)'
p105
sI24
S'response.write(form.custom.begin)'
p106
sI25
S'response.write(\'\\n<style>\\ninput{\\ncolor:brown;\\nborder:0;\\npadding:20px;\\nwidth:200px;\\n}\\n#x{\\nposition:fixed;\\ntop:20%;\\nleft:30%;\\nbackground-color:rgba(255,255,255,0.7);\\nwidth:50%;\\nheight:30%;\\ntext-align:left;\\npadding-left:40px;\\nfont-family: \\\'Nova Square\\\', cursive;\\ncolor:grey;\\nborder-radius:5%;\\n}\\n</style>\\n<div id="x">browse your image here ... \', escape=False)'
p107
sI26
S'response.write(form.custom.widget.picture)'
p108
sI27
S"response.write('<br>\\n', escape=False)"
p109
sI28
S'response.write(form.custom.submit)'
p110
sI29
S"response.write('\\n', escape=False)"
p111
sI30
S'response.write(form.custom.end)'
p112
sI31
S'response.write(\'\\n</div>\\n</td></tr>\\n\\n\\n \\n</table>\\n<div id="outer">\\n   <div id="inside">\\n\\n<table id="comments">\\n<tr><td colspan="3" style="text-align:center;">Activity so far(Restaurants)</td></tr>\\n\', escape=False)'
p113
ssg83
S'()'
p114
sg85
S'<module>'
p115
sasS'pyver'
p116
S'Python 2.7.5+: /usr/bin/python (prefix: /usr)'
p117
sS'session'
p118
g57
(S's}\x0b\x00\x00<div><table><tr><td style="font-weight:bold;vertical-align:top;">auth</td><td style="vertical-align:top;">:</td><td><div><table><tr><td style="font-weight:bold;vertical-align:top;">expiration</td><td style="vertical-align:top;">:</td><td><div>3600</div></td></tr><tr><td style="font-weight:bold;vertical-align:top;">hmac_key</td><td style="vertical-align:top;">:</td><td><div>824a0c08-8f29-4b79-a1ff-e39c8b409d42</div></td></tr><tr><td style="font-weight:bold;vertical-align:top;">last_visit</td><td style="vertical-align:top;">:</td><td><div>datetime.datetime(2014, 4, 25, 22, 36, 58, 985139)</div></td></tr><tr><td style="font-weight:bold;vertical-align:top;">remember</td><td style="vertical-align:top;">:</td><td><div>False</div></td></tr><tr><td style="font-weight:bold;vertical-align:top;">user</td><td style="vertical-align:top;">:</td><td><div><table><tr><td style="font-weight:bold;vertical-align:top;">address</td><td style="vertical-align:top;">:</td><td><div>shastrinagar,selu</div></td></tr><tr><td style="font-weight:bold;vertical-align:top;">city</td><td style="vertical-align:top;">:</td><td><div>selu</div></td></tr><tr><td style="font-weight:bold;vertical-align:top;">email</td><td style="vertical-align:top;">:</td><td><div>nikhildaliya@gmail.com</div></td></tr><tr><td style="font-weight:bold;vertical-align:top;">first_name</td><td style="vertical-align:top;">:</td><td><div>nikhil</div></td></tr><tr><td style="font-weight:bold;vertical-align:top;">id</td><td style="vertical-align:top;">:</td><td><div>8L</div></td></tr><tr><td style="font-weight:bold;vertical-align:top;">image</td><td style="vertical-align:top;">:</td><td><div>auth_user.image.93b8dd3cd1927e61.31303135303735375f31303135323334343033343737373133395f3135323630393531365f6e2e6a7067.jpg</div></td></tr><tr><td style="font-weight:bold;vertical-align:top;">last_name</td><td style="vertical-align:top;">:</td><td><div>daliya</div></td></tr><tr><td style="font-weight:bold;vertical-align:top;">phone</td><td style="vertical-align:top;">:</td><td><div>1234567890</div></td></tr><tr><td style="font-weight:bold;vertical-align:top;">registration_id</td><td style="vertical-align:top;">:</td><td><div></div></td></tr><tr><td style="font-weight:bold;vertical-align:top;">registration_key</td><td style="vertical-align:top;">:</td><td><div></div></td></tr><tr><td style="font-weight:bold;vertical-align:top;">reset_password_key</td><td style="vertical-align:top;">:</td><td><div></div></td></tr></table></div></td></tr><tr><td style="font-weight:bold;vertical-align:top;">user_groups</td><td style="vertical-align:top;">:</td><td><div><table><tr><td style="font-weight:bold;vertical-align:top;">8</td><td style="vertical-align:top;">:</td><td><div>user_8</div></td></tr></table></div></td></tr></table></div></td></tr><tr><td style="font-weight:bold;vertical-align:top;">flash</td><td style="vertical-align:top;">:</td><td><div>None</div></td></tr></table></div>'
tRp119
sS'etype'
p120
S"<type 'exceptions.NameError'>"
p121
sS'date'
p122
S'Fri Apr 25 22:36:59 2014'
p123
sS'response'
p124
g57
(S's\x1e2\x00\x00<div><table><tr><td style="font-weight:bold;vertical-align:top;">body</td><td style="vertical-align:top;">:</td><td><div>&lt;cStringIO.StringO object at 0x3c33810&gt;</div></td></tr><tr><td style="font-weight:bold;vertical-align:top;">cookies</td><td style="vertical-align:top;">:</td><td><div><table><tr><td style="font-weight:bold;vertical-align:top;">session_id_nikhil</td><td style="vertical-align:top;">:</td><td><div>127.0.0.1-2f003b5f-997c-40d5-91fc-7fea7ae7b96c<table><tr><td style="font-weight:bold;vertical-align:top;">comment</td><td style="vertical-align:top;">:</td><td><div></div></td></tr><tr><td style="font-weight:bold;vertical-align:top;">domain</td><td style="vertical-align:top;">:</td><td><div></div></td></tr><tr><td style="font-weight:bold;vertical-align:top;">expires</td><td style="vertical-align:top;">:</td><td><div></div></td></tr><tr><td style="font-weight:bold;vertical-align:top;">httponly</td><td style="vertical-align:top;">:</td><td><div></div></td></tr><tr><td style="font-weight:bold;vertical-align:top;">max-age</td><td style="vertical-align:top;">:</td><td><div></div></td></tr><tr><td style="font-weight:bold;vertical-align:top;">path</td><td style="vertical-align:top;">:</td><td><div>/</div></td></tr><tr><td style="font-weight:bold;vertical-align:top;">secure</td><td style="vertical-align:top;">:</td><td><div></div></td></tr><tr><td style="font-weight:bold;vertical-align:top;">version</td><td style="vertical-align:top;">:</td><td><div></div></td></tr></table></div></td></tr></table></div></td></tr><tr><td style="font-weight:bold;vertical-align:top;">delimiters</td><td style="vertical-align:top;">:</td><td><div><table><tr><td><div>{{</div></td></tr><tr><td><div>}}</div></td></tr></table></div></td></tr><tr><td style="font-weight:bold;vertical-align:top;">files</td><td style="vertical-align:top;">:</td><td><div><table></table></div></td></tr><tr><td style="font-weight:bold;vertical-align:top;">flash</td><td style="vertical-align:top;">:</td><td><div>Logged in</div></td></tr><tr><td style="font-weight:bold;vertical-align:top;">generic_patterns</td><td style="vertical-align:top;">:</td><td><div><table><tr><td><div>*</div></td></tr></table></div></td></tr><tr><td style="font-weight:bold;vertical-align:top;">google_analytics_id</td><td style="vertical-align:top;">:</td><td><div>None</div></td></tr><tr><td style="font-weight:bold;vertical-align:top;">headers</td><td style="vertical-align:top;">:</td><td><div><table><tr><td style="font-weight:bold;vertical-align:top;">X-Powered-By</td><td style="vertical-align:top;">:</td><td><div>web2py</div></td></tr></table></div></td></tr><tr><td style="font-weight:bold;vertical-align:top;">logo</td><td style="vertical-align:top;">:</td><td><div><a class="brand" href="http://www.web2py.com/"><b>web<span>2</span>py</b>&trade;&nbsp;</a></div></td></tr><tr><td style="font-weight:bold;vertical-align:top;">menu</td><td style="vertical-align:top;">:</td><td><div><table><tr><td><div><table><tr><td><div>Home</div></td></tr><tr><td><div>False</div></td></tr><tr><td><div>/nikhil/default/index</div></td></tr><tr><td><div><table></table></div></td></tr></table></div></td></tr><tr><td><div><table><tr><td><div><span class="highlighted">web2py</span></div></td></tr><tr><td><div>False</div></td></tr><tr><td><div>http://web2py.com</div></td></tr><tr><td><div><table><tr><td><div><table><tr><td><div>My Sites</div></td></tr><tr><td><div>False</div></td></tr><tr><td><div>/admin/default/site</div></td></tr></table></div></td></tr><tr><td><div><table><tr><td><div>This App</div></td></tr><tr><td><div>False</div></td></tr><tr><td><div>/admin/default/design/nikhil</div></td></tr><tr><td><div>[(&lt;lazyT &#x27;Controller&#x27;&gt;, False, &#x27;/admin/default/edit/nikhil/controllers/default.py&#x27;), (&lt;lazyT &#x27;View&#x27;&gt;, False, &#x27;/admin/default/edit/nikhil/views/default/my_activity.html&#x27;), (&lt;lazyT &#x27;Layout&#x27;&gt;, False, &#x27;/admin/default/edit/nikhil/views/layout.html&#x27;), (&lt;lazyT &#x27;Stylesheet&#x27;&gt;, False, &#x27;/admin/default/edit/nikhil/static/css/web2py.css&#x27;), (&lt;lazyT &#x27;DB Model&#x27;&gt;, False, &#x27;/admin/default/edit/nikhil/models/db.py&#x27;), (&lt;lazyT &#x27;Menu Model&#x27;&gt;, False, &#x27;/admin/default/edit/nikhil/models/menu.py&#x27;), (&lt;lazyT &#x27;Database&#x27;&gt;, False, &#x27;/nikhil/appadmin/index&#x27;), (&lt;lazyT &#x27;Errors&#x27;&gt;, False, &#x27;/admin/default/errors/nikhil&#x27;), (&lt;lazyT &#x27;About&#x27;&gt;, False, &#x27;/admin/default/about/nikhil&#x27;)]</div></td></tr></table></div></td></tr><tr><td><div><table><tr><td><div>web2py.com</div></td></tr><tr><td><div>False</div></td></tr><tr><td><div>http://www.web2py.com</div></td></tr><tr><td><div>[(&lt;lazyT &#x27;Download&#x27;&gt;, False, &#x27;http://www.web2py.com/examples/default/download&#x27;), (&lt;lazyT &#x27;Support&#x27;&gt;, False, &#x27;http://www.web2py.com/examples/default/support&#x27;), (&lt;lazyT &#x27;Demo&#x27;&gt;, False, &#x27;http://web2py.com/demo_admin&#x27;), (&lt;lazyT &#x27;Quick Examples&#x27;&gt;, False, &#x27;http://web2py.com/examples/default/examples&#x27;), (&lt;lazyT &#x27;FAQ&#x27;&gt;, False, &#x27;http://web2py.com/AlterEgo&#x27;), (&lt;lazyT &#x27;Videos&#x27;&gt;, False, &#x27;http://www.web2py.com/examples/default/videos/&#x27;), (&lt;lazyT &#x27;Free Applications&#x27;&gt;, False, &#x27;http://web2py.com/appliances&#x27;), (&lt;lazyT &#x27;Plugins&#x27;&gt;, False, &#x27;http://web2py.com/plugins&#x27;), (&lt;lazyT &#x27;Layouts&#x27;&gt;, False, &#x27;http://web2py.com/layouts&#x27;), (&lt;lazyT &#x27;Recipes&#x27;&gt;, False, &#x27;http://web2pyslices.com/&#x27;), (&lt;lazyT &#x27;Semantic&#x27;&gt;, False, &#x27;http://web2py.com/semantic&#x27;)]</div></td></tr></table></div></td></tr><tr><td><div><table><tr><td><div>Documentation</div></td></tr><tr><td><div>False</div></td></tr><tr><td><div>http://www.web2py.com/book</div></td></tr><tr><td><div>[(&lt;lazyT &#x27;Preface&#x27;&gt;, False, &#x27;http://www.web2py.com/book/default/chapter/00&#x27;), (&lt;lazyT &#x27;Introduction&#x27;&gt;, False, &#x27;http://www.web2py.com/book/default/chapter/01&#x27;), (&lt;lazyT &#x27;Python&#x27;&gt;, False, &#x27;http://www.web2py.com/book/default/chapter/02&#x27;), (&lt;lazyT &#x27;Overview&#x27;&gt;, False, &#x27;http://www.web2py.com/book/default/chapter/03&#x27;), (&lt;lazyT &#x27;The Core&#x27;&gt;, False, &#x27;http://www.web2py.com/book/default/chapter/04&#x27;), (&lt;lazyT &#x27;The Views&#x27;&gt;, False, &#x27;http://www.web2py.com/book/default/chapter/05&#x27;), (&lt;lazyT &#x27;Database&#x27;&gt;, False, &#x27;http://www.web2py.com/book/default/chapter/06&#x27;), (&lt;lazyT &#x27;Forms and Validators&#x27;&gt;, False, &#x27;http://www.web2py.com/book/default/chapter/07&#x27;), (&lt;lazyT &#x27;Email and SMS&#x27;&gt;, False, &#x27;http://www.web2py.com/book/default/chapter/08&#x27;), (&lt;lazyT &#x27;Access Control&#x27;&gt;, False, &#x27;http://www.web2py.com/book/default/chapter/09&#x27;), (&lt;lazyT &#x27;Services&#x27;&gt;, False, &#x27;http://www.web2py.com/book/default/chapter/10&#x27;), (&lt;lazyT &#x27;Ajax Recipes&#x27;&gt;, False, &#x27;http://www.web2py.com/book/default/chapter/11&#x27;), (&lt;lazyT &#x27;Components and Plugins&#x27;&gt;, False, &#x27;http://www.web2py.com/book/default/chapter/12&#x27;), (&lt;lazyT &#x27;Deployment Recipes&#x27;&gt;, False, &#x27;http://www.web2py.com/book/default/chapter/13&#x27;), (&lt;lazyT &#x27;Other Recipes&#x27;&gt;, False, &#x27;http://www.web2py.com/book/default/chapter/14&#x27;), (&lt;lazyT &#x27;Buy this book&#x27;&gt;, False, &#x27;http://stores.lulu.com/web2py&#x27;)]</div></td></tr></table></div></td></tr><tr><td><div><table><tr><td><div>Community</div></td></tr><tr><td><div>False</div></td></tr><tr><td><div>None</div></td></tr><tr><td><div>[(&lt;lazyT &#x27;Groups&#x27;&gt;, False, &#x27;http://www.web2py.com/examples/default/usergroups&#x27;), (&lt;lazyT &#x27;Twitter&#x27;&gt;, False, &#x27;http://twitter.com/web2py&#x27;), (&lt;lazyT &#x27;Live Chat&#x27;&gt;, False, &#x27;http://webchat.freenode.net/?channels=web2py&#x27;)]</div></td></tr></table></div></td></tr><tr><td><div><table><tr><td><div>Plugins</div></td></tr><tr><td><div>False</div></td></tr><tr><td><div>None</div></td></tr><tr><td><div>[(&#x27;plugin_wiki&#x27;, False, &#x27;http://web2py.com/examples/default/download&#x27;), (&lt;lazyT &#x27;Other Plugins&#x27;&gt;, False, &#x27;http://web2py.com/plugins&#x27;), (&lt;lazyT &#x27;Layout Plugins&#x27;&gt;, False, &#x27;http://web2py.com/layouts&#x27;)]</div></td></tr></table></div></td></tr></table></div></td></tr></table></div></td></tr></table></div></td></tr><tr><td style="font-weight:bold;vertical-align:top;">meta</td><td style="vertical-align:top;">:</td><td><div><table><tr><td style="font-weight:bold;vertical-align:top;">author</td><td style="vertical-align:top;">:</td><td><div>Your Name &lt;you@example.com&gt;</div></td></tr><tr><td style="font-weight:bold;vertical-align:top;">description</td><td style="vertical-align:top;">:</td><td><div>a cool new app</div></td></tr><tr><td style="font-weight:bold;vertical-align:top;">generator</td><td style="vertical-align:top;">:</td><td><div>Web2py Web Framework</div></td></tr><tr><td style="font-weight:bold;vertical-align:top;">keywords</td><td style="vertical-align:top;">:</td><td><div>web2py, python, framework</div></td></tr></table></div></td></tr><tr><td style="font-weight:bold;vertical-align:top;">models_to_run</td><td style="vertical-align:top;">:</td><td><div><table><tr><td><div>^\\w+\\.py$</div></td></tr><tr><td><div>^default/\\w+\\.py$</div></td></tr><tr><td><div>^default/my_activity/\\w+\\.py$</div></td></tr></table></div></td></tr><tr><td style="font-weight:bold;vertical-align:top;">postprocessing</td><td style="vertical-align:top;">:</td><td><div><table></table></div></td></tr><tr><td style="font-weight:bold;vertical-align:top;">session_client</td><td style="vertical-align:top;">:</td><td><div>127.0.0.1</div></td></tr><tr><td style="font-weight:bold;vertical-align:top;">session_cookie_compression_level</td><td style="vertical-align:top;">:</td><td><div>None</div></td></tr><tr><td style="font-weight:bold;vertical-align:top;">session_cookie_expires</td><td style="vertical-align:top;">:</td><td><div>None</div></td></tr><tr><td style="font-weight:bold;vertical-align:top;">session_cookie_key</td><td style="vertical-align:top;">:</td><td><div>None</div></td></tr><tr><td style="font-weight:bold;vertical-align:top;">session_data_name</td><td style="vertical-align:top;">:</td><td><div>session_data_nikhil</div></td></tr><tr><td style="font-weight:bold;vertical-align:top;">session_file</td><td style="vertical-align:top;">:</td><td><div>&lt;open file &#x27;/home/nikhil/itws2-project/web2py/applications/nikhil/sessions/127.0.0.1-2f003b5f-997c-40d5-91fc-7fea7ae7b96c&#x27;, mode &#x27;rb+&#x27; at 0x7fd5d40da300&gt;</div></td></tr><tr><td style="font-weight:bold;vertical-align:top;">session_filename</td><td style="vertical-align:top;">:</td><td><div>/home/nikhil/itws2-project/web2py/applications/nikhil/sessions/127.0.0.1-2f003b5f-997c-40d5-91fc-7fea7ae7b96c</div></td></tr><tr><td style="font-weight:bold;vertical-align:top;">session_hash</td><td style="vertical-align:top;">:</td><td><div>3521d6840d4de98b6b778763baee07b4</div></td></tr><tr><td style="font-weight:bold;vertical-align:top;">session_id</td><td style="vertical-align:top;">:</td><td><div>127.0.0.1-2f003b5f-997c-40d5-91fc-7fea7ae7b96c</div></td></tr><tr><td style="font-weight:bold;vertical-align:top;">session_id_name</td><td style="vertical-align:top;">:</td><td><div>session_id_nikhil</div></td></tr><tr><td style="font-weight:bold;vertical-align:top;">session_locked</td><td style="vertical-align:top;">:</td><td><div>True</div></td></tr><tr><td style="font-weight:bold;vertical-align:top;">session_masterapp</td><td style="vertical-align:top;">:</td><td><div>nikhil</div></td></tr><tr><td style="font-weight:bold;vertical-align:top;">session_new</td><td style="vertical-align:top;">:</td><td><div>False</div></td></tr><tr><td style="font-weight:bold;vertical-align:top;">session_storage_type</td><td style="vertical-align:top;">:</td><td><div>file</div></td></tr><tr><td style="font-weight:bold;vertical-align:top;">status</td><td style="vertical-align:top;">:</td><td><div>200</div></td></tr><tr><td style="font-weight:bold;vertical-align:top;">subtitle</td><td style="vertical-align:top;">:</td><td><div></div></td></tr><tr><td style="font-weight:bold;vertical-align:top;">title</td><td style="vertical-align:top;">:</td><td><div>Nikhil</div></td></tr><tr><td style="font-weight:bold;vertical-align:top;">view</td><td style="vertical-align:top;">:</td><td><div>default/my_activity.html</div></td></tr></table></div>'
tRp125
sS'locals'
p126
(dp127
S'Service'
p128
S"<class 'gluon.tools.Service'>"
p129
sS'photo'
p130
S"[{'picture': 'images.picture.a8cc175482ee52a0.3130313530373537...43737373133395f3135323630393531365f6e2e6a7067.jpg', 'place': 'chinmay da dhaba , hyderabad', 'place_id': 18L}, {'picture': 'images.picture.a546ff0a47321c46.3130313530373537...43737373133395f3135323630393531365f6e2e6a7067.jpg', 'place': 'debayan da dhaba , hyderabad', 'place_id': 30L}, {'picture': 'images.picture.b5f7f03cbcdef745.3130313530373537...43737373133395f3135323630393531365f6e2e6a7067.jpg', 'place': 'dabayan da dhaba , hyderabad', 'place_id': 31L}, {'picture': '', 'place': 'kfc , hyderabad', 'place_id': 19L}, {'picture': '', 'place': 'kfc , hyderabad', 'place_id': 19L}, {'picture': '', 'place': 'kfc , hyderabad', 'place_id': 19L}]"
p131
sS'OBJECT'
p132
S"<class 'gluon.html.OBJECT'>"
p133
sS'SQLDB'
p134
S"<class 'gluon.dal.DAL'>"
p135
sg118
S"<Storage {'_auth_next': None, 'flash': None, 'au...gin]': ['afbdb130-6891-4470-a5d9-fc3a1b1a67cb']}>"
p136
sS'LINK'
p137
S"<class 'gluon.html.LINK'>"
p138
sS'BR'
p139
S"<class 'gluon.html.BR'>"
p140
sS'local_import'
p141
S'<function <lambda>>'
p142
sS'OPTGROUP'
p143
S"<class 'gluon.html.OPTGROUP'>"
p144
sS'__package__'
p145
S'None'
p146
sS'PRE'
p147
S"<class 'gluon.html.PRE'>"
p148
sS'IS_INT_IN_RANGE'
p149
S"<class 'gluon.validators.IS_INT_IN_RANGE'>"
p150
sS'IS_LOWER'
p151
S"<class 'gluon.validators.IS_LOWER'>"
p152
sS'IS_STRONG'
p153
S"<class 'gluon.validators.IS_STRONG'>"
p154
sS'cache'
p155
S'<gluon.cache.Cache object>'
p156
sS'IS_IN_DB'
p157
S"<class 'gluon.validators.IS_IN_DB'>"
p158
sS'TAG'
p159
S'<gluon.html.__TAG__ object>'
p160
sS'SQLField'
p161
S"<class 'gluon.dal.Field'>"
p162
sS'mail'
p163
S'<gluon.tools.Mail object>'
p164
sS'commen_list'
p165
S"[{'commenti': 'nice i liked it', 'place': 'Ready', 'place_id': 1L, 'review': '4.5'}, {'commenti': 'nice\\r\\n', 'place': 'Ready', 'place_id': 1L, 'review': '3.5'}, {'commenti': 'all right very nice it was all fun with friends\\r\\nthanks!!!!', 'place': 'Ready', 'place_id': 1L, 'review': '3'}, {'commenti': 'nice one', 'place': 'Ready', 'place_id': 1L, 'review': '3.5'}]"
p166
sS'BODY'
p167
S"<class 'gluon.html.BODY'>"
p168
sS'IS_DATE_IN_RANGE'
p169
S"<class 'gluon.validators.IS_DATE_IN_RANGE'>"
p170
sS'IFRAME'
p171
S"<class 'gluon.html.IFRAME'>"
p172
sS'URL'
p173
S'<function URL>'
p174
sS'__file__'
p175
S"'/home/nikhil/itws2-project/web2py/applications/nikhil/views/default/my_activity.html'"
p176
sS'db'
p177
S'<DAL uri="sqlite://storage.sqlite">'
p178
sS'auth'
p179
S'<gluon.tools.Auth object>'
p180
sS'P'
S"<class 'gluon.html.P'>"
p181
sS'TFOOT'
p182
S"<class 'gluon.html.TFOOT'>"
p183
sS'XHTML'
p184
S"<class 'gluon.html.XHTML'>"
p185
sS'ON'
p186
S'True'
p187
sS'OL'
p188
S"<class 'gluon.html.OL'>"
p189
sS'TEXTAREA'
p190
S"<class 'gluon.html.TEXTAREA'>"
p191
sS'MENU'
p192
S"<class 'gluon.html.MENU'>"
p193
sS'IS_IMAGE'
p194
S"<class 'gluon.validators.IS_IMAGE'>"
p195
sS'EM'
p196
S"<class 'gluon.html.EM'>"
p197
sS'CODE'
p198
S"<class 'gluon.html.CODE'>"
p199
sS'HTTP'
p200
S"<class 'gluon.http.HTTP'>"
p201
sS'HR'
p202
S"<class 'gluon.html.HR'>"
p203
sS'IS_DATETIME'
p204
S"<class 'gluon.validators.IS_DATETIME'>"
p205
sS'STYLE'
p206
S"<class 'gluon.html.STYLE'>"
p207
sS'LABEL'
p208
S"<class 'gluon.html.LABEL'>"
p209
sS'CLEANUP'
p210
S"<class 'gluon.validators.CLEANUP'>"
p211
sS'plugins'
p212
S'<gluon.tools.PluginManager object>'
p213
sS'SELECT'
p214
S"<class 'gluon.html.SELECT'>"
p215
sS'use_janrain'
p216
S'<function use_janrain>'
p217
sS'CENTER'
p218
S"<class 'gluon.html.CENTER'>"
p219
sS'prettydate'
p220
S'<function prettydate>'
p221
sS'custom_auth_table'
p222
S'<Table auth_user (id,first_name,last_name,email,...stration_key,reset_password_key,registration_id)>'
p223
sS'Crud'
p224
S"<class 'gluon.tools.Crud'>"
p225
sS'Auth'
p226
S"<class 'gluon.tools.Auth'>"
p227
sS'DEVELOPMENT_MENU'
p228
g187
sS'__builtins__'
p229
S"{'ArithmeticError': <type 'exceptions.ArithmeticError'>, 'AssertionError': <type 'exceptions.AssertionError'>, 'AttributeError': <type 'exceptions.AttributeError'>, 'BaseException': <type 'exceptions.BaseException'>, 'BufferError': <type 'exceptions.BufferError'>, 'BytesWarning': <type 'exceptions.BytesWarning'>, 'DeprecationWarning': <type 'exceptions.DeprecationWarning'>, 'EOFError': <type 'exceptions.EOFError'>, 'Ellipsis': Ellipsis, 'EnvironmentError': <type 'exceptions.EnvironmentError'>, ...}"
p230
sS'HTML'
p231
S"<class 'gluon.html.HTML'>"
p232
sS'SQLFORM'
p233
S"<class 'gluon.sqlhtml.SQLFORM'>"
p234
sS'LOAD'
p235
S'<function LOAD>'
p236
sS'redirect'
p237
S'<function redirect>'
p238
sS'FIELDSET'
p239
S"<class 'gluon.html.FIELDSET'>"
p240
sS'IS_EQUAL_TO'
p241
S"<class 'gluon.validators.IS_EQUAL_TO'>"
p242
sS'embed64'
p243
S'<function embed64>'
p244
sS'IS_LIST_OF'
p245
S"<class 'gluon.validators.IS_LIST_OF'>"
p246
sS'INPUT'
p247
S"<class 'gluon.html.INPUT'>"
p248
sS'EMBED'
p249
S"<class 'gluon.html.EMBED'>"
p250
sS'_'
S'<function _>'
p251
sS'H2'
p252
S"<class 'gluon.html.H2'>"
p253
sS'H3'
p254
S"<class 'gluon.html.H3'>"
p255
sS'BUTTON'
p256
S"<class 'gluon.html.BUTTON'>"
p257
sS'H1'
p258
S"<class 'gluon.html.H1'>"
p259
sS'H6'
p260
S"<class 'gluon.html.H6'>"
p261
sS'H4'
p262
S"<class 'gluon.html.H4'>"
p263
sS'H5'
p264
S"<class 'gluon.html.H5'>"
p265
sS'UL'
p266
S"<class 'gluon.html.UL'>"
p267
sS'IS_UPPER'
p268
S"<class 'gluon.validators.IS_UPPER'>"
p269
sS'xmlescape'
p270
S'<function xmlescape>'
p271
sS'IS_TIME'
p272
S"<class 'gluon.validators.IS_TIME'>"
p273
sS'OPTION'
p274
S"<class 'gluon.html.OPTION'>"
p275
sS'TITLE'
p276
S"<class 'gluon.html.TITLE'>"
p277
sS'CRYPT'
p278
S"<class 'gluon.validators.CRYPT'>"
p279
sS'IS_EMPTY_OR'
p280
S"<class 'gluon.validators.IS_EMPTY_OR'>"
p281
sS'MARKMIN'
p282
S"<class 'gluon.html.MARKMIN'>"
p283
sS'__name__'
p284
S"'__restricted__'"
p285
sS'message'
p286
S"<Row {'city': 'selu', 'first_name': 'nikhil', 'l...rinagar,selu', 'registration_key': '', 'id': 8L}>"
p287
sS'STRONG'
p288
S"<class 'gluon.html.STRONG'>"
p289
sS'COL'
p290
S"<class 'gluon.html.COL'>"
p291
sS'service'
p292
S'<gluon.tools.Service object>'
p293
sS'SCRIPT'
p294
S"<class 'gluon.html.SCRIPT'>"
p295
sS'TABLE'
p296
S"<class 'gluon.html.TABLE'>"
p297
sS'IS_IPV4'
p298
S"<class 'gluon.validators.IS_IPV4'>"
p299
sS'IS_LENGTH'
p300
S"<class 'gluon.validators.IS_LENGTH'>"
p301
sS'IS_IPV6'
p302
S"<class 'gluon.validators.IS_IPV6'>"
p303
sS'XML'
p304
S"<class 'gluon.html.XML'>"
p305
sS'B'
S"<class 'gluon.html.B'>"
p306
sS'IMG'
p307
S"<class 'gluon.html.IMG'>"
p308
sS'SQLTABLE'
p309
S"<class 'gluon.sqlhtml.SQLTABLE'>"
p310
sS'IS_MATCH'
p311
S"<class 'gluon.validators.IS_MATCH'>"
p312
sS'IS_ALPHANUMERIC'
p313
S"<class 'gluon.validators.IS_ALPHANUMERIC'>"
p314
sS'comment_list'
p315
S"[{'commenti': 'good one', 'place': 'debayan da dhaba, hyderabad', 'place_id': 30L, 'review': 4.0}, {'commenti': 'good one', 'place': 'dabayan da dhaba, hyderabad', 'place_id': 31L, 'review': 4.0}, {'commenti': 'fine', 'place': 'dabbo da dhaba, hyderabad', 'place_id': 32L, 'review': 3.0}, {'commenti': 'nice one', 'place': 'dabbo da dhaba, hyderabad', 'place_id': 32L, 'review': 4.0}, {'commenti': 'good one ', 'place': 'chinmay da dhaba, hyderabad', 'place_id': 18L, 'review': 5.0}, {'commenti': 'very nice', 'place': 'debayan da dhaba, hyderabad', 'place_id': 30L, 'review': 3.0}, {'commenti': 'a good one', 'place': 'gutthi da dhaba, khargon', 'place_id': 33L, 'review': 3.0}, {'commenti': 'nice', 'place': 'gutthi da dhaba, khargon', 'place_id': 33L, 'review': 3.7}, {'commenti': 'oh...great', 'place': 'debayan da dhaba, hyderabad', 'place_id': 30L, 'review': 5.0}, {'commenti': 'nice one', 'place': 'debayan da dhaba, hyderabad', 'place_id': 30L, 'review': 3.0}, {'commenti': 'wowwie', 'place': 'dabayan da dhaba, hyderabad', 'place_id': 31L, 'review': 4.9}, {'commenti': 's', 'place': 'kushal da dhaba, hyderabad', 'place_id': 17L, 'review': 4.0}, {'commenti': 'nice hotel', 'place': 'kushal da dhaba, hyderabad', 'place_id': 17L, 'review': 3.5}, {'commenti': 'fatichar hai !!!!!!!!!!! mat jao,..................i ki bhikari ke dhabe mein ambani jaa rahah hai\\r\\n', 'place': 'nikhil fantasy, selu', 'place_id': 25L, 'review': 0.5}]"
p316
sS'SPAN'
p317
S"<class 'gluon.html.SPAN'>"
p318
sS'IS_JSON'
p319
S"<class 'gluon.validators.IS_JSON'>"
p320
sS'IS_IPADDRESS'
p321
S"<class 'gluon.validators.IS_IPADDRESS'>"
p322
sS'IS_SLUG'
p323
S"<class 'gluon.validators.IS_SLUG'>"
p324
sS'BEAUTIFY'
p325
S"<class 'gluon.html.BEAUTIFY'>"
p326
sS'META'
p327
S"<class 'gluon.html.META'>"
p328
sS'IS_DATE'
p329
S"<class 'gluon.validators.IS_DATE'>"
p330
sS'IS_EMAIL'
p331
S"<class 'gluon.validators.IS_EMAIL'>"
p332
sS'IS_NOT_EMPTY'
p333
S"<class 'gluon.validators.IS_NOT_EMPTY'>"
p334
sS'IS_FLOAT_IN_RANGE'
p335
S"<class 'gluon.validators.IS_FLOAT_IN_RANGE'>"
p336
sS'TBODY'
p337
S"<class 'gluon.html.TBODY'>"
p338
sS'CAT'
p339
S"<class 'gluon.html.CAT'>"
p340
sS'Field'
p341
S"<class 'gluon.dal.Field'>"
p342
sS'IS_LIST_OF_EMAILS'
p343
S"<class 'gluon.validators.IS_LIST_OF_EMAILS'>"
p344
sS'Mail'
p345
S"<class 'gluon.tools.Mail'>"
p346
sS'DIV'
p347
S"<class 'gluon.html.DIV'>"
p348
sS'LEGEND'
p349
S"<class 'gluon.html.LEGEND'>"
p350
sS'COLGROUP'
p351
S"<class 'gluon.html.COLGROUP'>"
p352
sS'DAL'
p353
S"<class 'gluon.dal.DAL'>"
p354
sS'TT'
p355
S"<class 'gluon.html.TT'>"
p356
sS'TR'
p357
S"<class 'gluon.html.TR'>"
p358
sS'LI'
p359
S"<class 'gluon.html.LI'>"
p360
sS'TH'
p361
S"<class 'gluon.html.TH'>"
p362
sS'TD'
p363
S"<class 'gluon.html.TD'>"
p364
sS'PluginManager'
p365
S"<class 'gluon.tools.PluginManager'>"
p366
sS'IS_URL'
p367
S"<class 'gluon.validators.IS_URL'>"
p368
sS'A'
S"<class 'gluon.html.A'>"
p369
sS'HEAD'
p370
S"<class 'gluon.html.HEAD'>"
p371
sS'IS_DATETIME_IN_RANGE'
p372
S"<class 'gluon.validators.IS_DATETIME_IN_RANGE'>"
p373
sS'FORM'
p374
S"<class 'gluon.html.FORM'>"
p375
sS'I'
S"<class 'gluon.html.I'>"
p376
sS'crud'
p377
S'<gluon.tools.Crud object>'
p378
sS'IS_NOT_IN_DB'
p379
S"<class 'gluon.validators.IS_NOT_IN_DB'>"
p380
sg124
S"<Storage {'body': <cStringIO.StringO object at 0...d5d40dea28>, 'view': 'default/my_activity.html'}>"
p381
sS'THEAD'
p382
S"<class 'gluon.html.THEAD'>"
p383
sS'ANY_OF'
p384
S"<class 'gluon.validators.ANY_OF'>"
p385
sS'IS_NULL_OR'
p386
S"<class 'gluon.validators.IS_EMPTY_OR'>"
p387
sg56
S"<Storage {'_vars': None, 'function': 'my_activit...khil/itws2-project/web2py/applications/nikhil/'}>"
p388
sS'IS_EXPR'
p389
S"<class 'gluon.validators.IS_EXPR'>"
p390
sS'T'
S'<gluon.languages.translator object>'
p391
sS'IS_IN_SET'
p392
S"<class 'gluon.validators.IS_IN_SET'>"
p393
sS'IS_UPLOAD_FILENAME'
p394
S"<class 'gluon.validators.IS_UPLOAD_FILENAME'>"
p395
sS'IS_DECIMAL_IN_RANGE'
p396
S"<class 'gluon.validators.IS_DECIMAL_IN_RANGE'>"
p397
sssS'traceback'
p398
S'Traceback (most recent call last):\n  File "/home/nikhil/itws2-project/web2py/gluon/restricted.py", line 217, in restricted\n    exec ccode in environment\n  File "/home/nikhil/itws2-project/web2py/applications/nikhil/views/default/my_activity.html", line 24, in <module>\n    #x{\nNameError: name \'form\' is not defined\n'
p399
s.