(dp1
S'output'
p2
S'Unable to open included view file: /ug/ug2k13/cse/darshan.jaju/Desktop/itws2-project/web2py/applications/nikhil/views/../default/index.html'
p3
sS'layer'
p4
S'ParserContainer'
p5
sS'code'
p6
S'{{extend "../default/index.html"}}\n<html>\n<head>\n<link href="{{=URL(\'static\', \'css/index2.css\')}}" rel="stylesheet" type="text/css" />\n</head>\n<body>\n<script>\nfunction loadXMLDoc()\n{\nvar xmlhttp;\nif (window.XMLHttpRequest)\n  {// code for IE7+, Firefox, Chrome, Opera, Safari\n  xmlhttp=new XMLHttpRequest();\n  }\nelse\n  {// code for IE6, IE5\n  xmlhttp=new ActiveXObject("Microsoft.XMLHTTP");\n  }\nxmlhttp.onreadystatechange=function()\n  {\n  if (xmlhttp.readyState==4 && xmlhttp.status==200)\n    {\n      a=xmlhttp.responseText;\n      d=eval(\'(\'+a+\')\');\n      var p=d.fname;\n      document.getElementById("links").innerHTML="";\n      for(i=0;i<p.length;i++)\n      {\n       if((i)%2==0)\n \n       var node=document.createElement("tr");\n       var noded=document.createElement("td");\n       noded.className="link_holder";\n       var tnode=document.createTextNode(p[i]);\n       var a=document.createElement("a");\n       a.href="./entry/"+d.id[i];\n       a.appendChild(tnode);\n       \n       \n      noded.appendChild(a);\n      node.appendChild(noded);\n      if((i)%2==1)\n      document.getElementById("links").appendChild(node);\n      node.addEventListener("click",function(e){\n\t\t      document.getElementById("a").value=this.innerHTML;\n                      document.getElementById("links").innerHTML="";\n\t\t      });\n      };\n      if(i%2==1)\n      document.getElementById("links").appendChild(node);\n    }\n}\nx=document.getElementById("search").value;\ns="./get_search?p="+x;\nxmlhttp.open("GET",s,true);\nxmlhttp.send();\n};\ndocument.body.addEventListener("keyup",loadXMLDoc);\n</script>\n\n<button id="b" onclick="loadXMLDoc()">submit</button>\n<table id="links"></table>\n<input id="search" type=\'text\' ></input>\n\n'
p7
sS'snapshot'
p8
(dp9
S'exception'
p10
(dp11
S'__getslice__'
p12
S"<method-wrapper '__getslice__' of exceptions.IOError object>"
p13
sS'__str__'
p14
S"<method-wrapper '__str__' of exceptions.IOError object>"
p15
sS'__reduce__'
p16
S'<built-in method __reduce__ of exceptions.IOError object>'
p17
sS'__dict__'
p18
S'{}'
p19
sS'__sizeof__'
p20
S'<built-in method __sizeof__ of exceptions.IOError object>'
p21
sS'__init__'
p22
S"<method-wrapper '__init__' of exceptions.IOError object>"
p23
sS'__setattr__'
p24
S"<method-wrapper '__setattr__' of exceptions.IOError object>"
p25
sS'__reduce_ex__'
p26
S'<built-in method __reduce_ex__ of exceptions.IOError object>'
p27
sS'__new__'
p28
S'<built-in method __new__ of type object>'
p29
sS'errno'
p30
S'2'
sS'__format__'
p31
S'<built-in method __format__ of exceptions.IOError object>'
p32
sS'__class__'
p33
S"<type 'exceptions.IOError'>"
p34
sS'filename'
p35
S"'/ug/ug2k13/cse/darshan.jaju/Desktop/itws2-projec...y/applications/nikhil/views/../default/index.html'"
p36
sS'__doc__'
p37
S"'I/O operation failed.'"
p38
sS'__getitem__'
p39
S"<method-wrapper '__getitem__' of exceptions.IOError object>"
p40
sS'__setstate__'
p41
S'<built-in method __setstate__ of exceptions.IOError object>'
p42
sS'__getattribute__'
p43
S"<method-wrapper '__getattribute__' of exceptions.IOError object>"
p44
sS'args'
p45
S"(2, 'No such file or directory')"
p46
sS'__subclasshook__'
p47
S'<built-in method __subclasshook__ of type object>'
p48
sS'__unicode__'
p49
S'<built-in method __unicode__ of exceptions.IOError object>'
p50
sS'strerror'
p51
S"'No such file or directory'"
p52
sS'__delattr__'
p53
S"<method-wrapper '__delattr__' of exceptions.IOError object>"
p54
sS'__repr__'
p55
S"<method-wrapper '__repr__' of exceptions.IOError object>"
p56
sS'__hash__'
p57
S"<method-wrapper '__hash__' of exceptions.IOError object>"
p58
ssS'evalue'
p59
S"[Errno 2] No such file or directory: '/ug/ug2k13/cse/darshan.jaju/Desktop/itws2-project/web2py/applications/nikhil/views/../default/index.html'"
p60
sS'frames'
p61
(lp62
(dp63
S'file'
p64
S'/ug/ug2k13/cse/darshan.jaju/Desktop/itws2-project/web2py/gluon/template.py'
p65
sS'dump'
p66
(dp67
S'builtinopen'
p68
S'<built-in function open>'
p69
sS'fileobj'
p70
S'undefined'
p71
sS'filepath'
p72
S"'/ug/ug2k13/cse/darshan.jaju/Desktop/itws2-projec...y/applications/nikhil/views/../default/index.html'"
p73
ssS'lnum'
p74
I447
sS'lines'
p75
(dp76
I448
S'            text = fileobj.read()'
p77
sI449
S'            fileobj.close()'
p78
sI450
S'        except IOError:'
p79
sI451
S"            self._raise_error('Unable to open included view file: ' + filepath)"
p80
sI442
S'        # Get the path of the file on the system.'
p81
sI443
S'        filepath = self.path and os.path.join(self.path, filename) or filename'
p82
sI444
S''
sI445
S'        # try to read the text.'
p83
sI446
S'        try:'
p84
sI447
S"            fileobj = open(filepath, 'rb')"
p85
ssS'call'
p86
S"(self=<gluon.template.TemplateParser object>, filename='../default/index.html')"
p87
sS'func'
p88
S'_get_file_text'
p89
sasS'pyver'
p90
S'Python 2.7: /usr/bin/python (prefix: /usr)'
p91
sS'etype'
p92
S"<type 'exceptions.IOError'>"
p93
sS'date'
p94
S'Mon Apr 14 22:09:47 2014'
p95
sS'locals'
p96
(dp97
S'self'
p98
S'<gluon.template.TemplateParser object>'
p99
sS'filepath'
p100
S"'/ug/ug2k13/cse/darshan.jaju/Desktop/itws2-projec...y/applications/nikhil/views/../default/index.html'"
p101
sS'context'
p102
S"{'A': <class 'gluon.html.A'>, 'ANY_OF': <class 'gluon.validators.ANY_OF'>, 'Auth': <class 'gluon.tools.Auth'>, 'B': <class 'gluon.html.B'>, 'BEAUTIFY': <class 'gluon.html.BEAUTIFY'>, 'BODY': <class 'gluon.html.BODY'>, 'BR': <class 'gluon.html.BR'>, 'BUTTON': <class 'gluon.html.BUTTON'>, 'CAT': <class 'gluon.html.CAT'>, 'CENTER': <class 'gluon.html.CENTER'>, ...}"
p103
sg35
S"'../default/index.html'"
p104
sssS'traceback'
p105
S'Traceback (most recent call last):\n  File "/ug/ug2k13/cse/darshan.jaju/Desktop/itws2-project/web2py/gluon/template.py", line 447, in _get_file_text\n    fileobj = open(filepath, \'rb\')\nIOError: [Errno 2] No such file or directory: \'/ug/ug2k13/cse/darshan.jaju/Desktop/itws2-project/web2py/applications/nikhil/views/../default/index.html\'\n'
p106
s.