(dp1
S'output'
p2
S'missing "pass" in view'
p3
sS'layer'
p4
S'ParserContainer'
p5
sS'code'
p6
S'response.write(\'<!DOCTYPE HTML>\\n<html>\\n<head>\\n<link href="\', escape=False)\nresponse.write(URL(\'static\', \'css/entry.css\'))\nresponse.write(\'" rel="stylesheet" type="text/css" />\\n<link href=\\\'http://fonts.googleapis.com/css?family=Shadows+Into+Light\\\' rel=\\\'stylesheet\\\' type=\\\'text/css\\\'>\\n    <link href="\', escape=False)\nresponse.write(URL(\'static\', \'css/js-image-slider.css\'))\nresponse.write(\'" rel="stylesheet" type="text/css" />\\n    <link href="\', escape=False)\nresponse.write(URL(\'static\', \'css/tooltip.css\'))\nresponse.write(\'" rel="stylesheet" type="text/css" />\\n\\n    <link href="\', escape=False)\nresponse.write(URL(\'static\', \'css/generic.css\'))\nresponse.write(\'" rel="stylesheet" type="text/css" />\\n    <script src="\', escape=False)\nresponse.write(URL(\'static\', \'js/js-image-slider.js\'))\nresponse.write(\'"  type="text/javascript" ></script>\\n    <script src="\', escape=False)\nresponse.write(URL(\'static\', \'js/tooltip.js\'))\nresponse.write(\'"  type="text/javascript" ></script>\\n\\n<script>\\nfunction act1(){\\ndocument.getElementById("a2").style.display=""\\nconsole.log("hiii")\\ndocument.getElementById("a3").style.display=""\\ndocument.getElementById("a4").style.display="None"\\ndocument.getElementById("a5").style.display="None"\\ndocument.getElementById("a6").style.display="None"\\ndocument.getElementById("a7").style.display="None"\\n\\n\\n}\\nfunction act2(){\\ndocument.getElementById("a3").style.display=""\\ndocument.getElementById("a2").style.display="None"\\ndocument.getElementById("a4").style.display="None"\\ndocument.getElementById("a5").style.display="None"\\ndocument.getElementById("a6").style.display="None"\\ndocument.getElementById("a7").style.display="None"\\n\\n\\n}\\nfunction act3(){\\ndocument.getElementById("a4").style.display=""\\ndocument.getElementById("a2").style.display="None"\\ndocument.getElementById("a3").style.display="None"\\ndocument.getElementById("a5").style.display="None"\\ndocument.getElementById("a6").style.display="None"\\ndocument.getElementById("a7").style.display="None"\\n\\n\\n}\\nfunction act4(){\\ndocument.getElementById("a4").style.display="None"\\ndocument.getElementById("a2").style.display="None"\\ndocument.getElementById("a3").style.display="None"\\ndocument.getElementById("a5").style.display=""\\ndocument.getElementById("a6").style.display="None"\\ndocument.getElementById("a7").style.display="None"\\n\\n}\\nfunction act5(){\\ndocument.getElementById("a4").style.display="None"\\ndocument.getElementById("a2").style.display="None"\\ndocument.getElementById("a3").style.display="None"\\ndocument.getElementById("a5").style.display="None"\\ndocument.getElementById("a6").style.display=""\\ndocument.getElementById("a7").style.display="None"\\n\\n}\\nfunction act6(){\\ndocument.getElementById("a4").style.display="None"\\ndocument.getElementById("a2").style.display="None"\\ndocument.getElementById("a3").style.display="None"\\ndocument.getElementById("a5").style.display="None"\\ndocument.getElementById("a6").style.display="None"\\ndocument.getElementById("a7").style.display=""\\n\\n}\\n\\nwindow.addEventListener("load", act1)\\n</script>\\n</head>\\n<body>\\n<div id="blur"></div>\\n<div id="a1">\\n\\n\\n         <font size="6" id="header">\', escape=False)\nresponse.write(message["fname"])\nresponse.write(\'</font>\\n\\n\\n   <table id="nvg">\\n      <tr>\\n            \', escape=False)\nif len(message["Pure_Veg"])!=8:\n    response.write(\'\\n                    \\n                   <td ><img id="nv" src="../../static/images/nv.jpg"></td>\\n            \', escape=False)\n    pass\nresponse.write(\'\\n            <td ><img id="v" src="../../static/images/v.jpg"></td>\\n     </tr>\\n     </table>\\n\\n         <hr>\\n <div id="rate"><br><font size="6">\', escape=False)\nresponse.write(message["Ratings"])\nresponse.write(\'<sub>/5</sub></font></div>\\n    \\n       <table id="contacts">\\n       <tr><td colspan="1"><b>Address</b></td><td  colspan="3">: <i id="mapping">\', escape=False)\nresponse.write(message["Address"])\nresponse.write(\',\', escape=False)\nresponse.write(message["city"])\nresponse.write(\'</i></td></tr>\\n       <tr><td><b>Email</b></td><td>: <i>\', escape=False)\nresponse.write(message["Email_id"])\nresponse.write(\'</i>\\n       <b>Phone</b> </td><td>: <i>\', escape=False)\nresponse.write(message["Phone"])\nresponse.write(\'</i></td></tr>\\n       </table>\\n     \\n     \\n</div>\\n<table id="buttons">\\n<tr>\\n<td><button onfocus="if(this.blur)this.blur()" onclick="act1()"><font size="4">comments</font></button></td>\\n<!--<td><button onfocus="if(this.blur)this.blur()" onclick="act2()"><font size="4">Nearby restaurent</font></button></td>-->\\n<td><button onfocus="if(this.blur)this.blur()" onclick="act3()"><font size="4">Gallery</font></button></td>\\n<td><button onfocus="if(this.blur)this.blur()" onclick="map()"><font size="4">Maps</font></button></td>\\n<td><button onfocus="if(this.blur)this.blur()" onclick="act5()"><font size="4">Menu</font></button></td>\\n<td><button onfocus="if(this.blur)this.blur()" onclick="act6()"><font size="4">Administrative interface</font></button></td>\\n\\n</tr>\\n\\n\\n\\n</table>\\n\\n\\n    <table id="tp">\\n<tr>\\n\\n<td><a href="\', escape=False)\nresponse.write(URL(r=request,f=\'make_your_comment\',args=message[\'place_id\']))\nresponse.write(\'"><font size="4"> Post Your Comments here...</font></a></td>\\n<td>\\n<a href="\', escape=False)\nresponse.write(URL(r=request,f=\'share_image\',args=message[\'place_id\']))\nresponse.write(\'"><font size="4">Share images with us </font></a></td>\\n</tr>\\n</table>\\n\\n  <div id="a2">\\n    <div id="init">\\n\\n   <hr>\\n   \', escape=False)\nfor i in comment_list:\n    response.write(\'\\n   <table>\\n      <tr>\\n     <td rowspan="4"><img class="ppic" src="\', escape=False)\n    response.write(URL(r=request,f=\'download\',args=[i["image"]]))\n    response.write(\'" width=50px height=10px /></td>\\n     <tr><td> <font size="4"><b>\', escape=False)\n    response.write(i["person"])\n    response.write(\'</b></font></td></tr><tr>\\n    \\n     <td class="comment"><i>\', escape=False)\n    response.write(i["comment"])\n    response.write(\'</i></td>\\n     </tr>\\n     </table>\\n      \\n      <div class="x"><font size="6"><mark>\', escape=False)\n    response.write(i["review"])\n    response.write(\'</mark></font></div><br>\\n      <div class="time">\', escape=False)\n    response.write(i["time"])\n    response.write(\'</div>\\n      <hr>\\n\', escape=False)\n    pass\nresponse.write(\'\\n</div>\\n\\n</div>\\n\\n\\n\\n\\n\\n\\n\\n\\n<div id="a3">\\n<div id="invo">\\n\', escape=False)\ntempvar2=1\nresponse.write(\'\\n<table id="main"><tr><td>\\n\', escape=False)\nfor i in nearby_places:\n    response.write(\'\\n<table class="nbr">\\n<tr>\\n<td colspan="2"><a href="\', escape=False)\n    response.write(URL(r=request,f=\'entry\',args=i.id))\n    response.write(\'">\', escape=False)\n    response.write(i.fname)\n    response.write(\',\', escape=False)\n    response.write(message["city"])\n    response.write(\'</a></td>\\n</tr><tr><td><p>Phone no:</p></td><td><p>\', escape=False)\n    response.write(i.Phone)\n    response.write(\'</p></td>\\n</tr><tr><td><p>Email_id:</p></td><td><p>\', escape=False)\n    response.write(i.Email_id)\n    response.write(\'</p></td>\\n</tr>\\n</table><hr>\\n\', escape=False)\n    pass\nresponse.write(\'\\n</td></tr></table>\\n</div>\\n</div>\\n\\n\\n<div id="a6">\\n<img  id="up" src="\', escape=False)\nresponse.write(URL(r=request,f=\'download\',args=[message["menu"]]))\nresponse.write(\'"/>\\n</div>\\n \\n\\n\\n<div id="a4">\\n\\n    <div id="sliderFrame">\\n        <div id="slider">                \\n      \', escape=False)\nfor i in pictures:\n    response.write(\'\\n             <img class="rimg" src="\', escape=False)\n    response.write(URL(r=request,f=\'download\',args=[i.picture]))\n    response.write(\'" alt="\', escape=False)\n    response.write(i["per"])\n    response.write(\'"/>\\n      \', escape=False)\n    pass\nresponse.write(\'\\n         </div>\\n       \\n    </div>\\n      \\n</div>\\n\\n\\n\\n<script\\nsrc="http://maps.googleapis.com/maps/api/js?key=AIzaSyDY0kkJiTPVd2U7aTOAwhc9ySH6oHxOIYM&sensor=false">\\n</script>\\n\\n<script>\\nfunction map(){\\np=document.getElementById("mapping").innerHTML\\nconsole.log(p)\\nn=\\\'https://maps.google.com/maps?f=d&saddr=&daddr=\\\'+p\\n\\nn=\\\'https://maps.googleapis.com/maps/api/geocode/json?address=\\\'+p+\\\'&sensor=false\\\'\\n\\n\\n\\n\\nfunction loadXMLDoc()\\n{\\nvar xmlhttp;\\nif (window.XMLHttpRequest)\\n  {// code for IE7+, Firefox, Chrome, Opera, Safari\\n  xmlhttp=new XMLHttpRequest();\\n  }\\nelse\\n  {// code for IE6, IE5\\n  xmlhttp=new ActiveXObject("Microsoft.XMLHTTP");\\n  }\\nxmlhttp.onreadystatechange=function()\\n  {\\n  if (xmlhttp.readyState==4 && xmlhttp.status==200)\\n    {\\n     s=xmlhttp.responseText;\\n     j=eval(\\\'(\\\'+s+\\\')\\\')\\n     console.log(j.results[0].geometry.location.lat)\\nfunction initialize()\\n{\\nvar mapProp = {\\n  center:new google.maps.LatLng(j.results[0].geometry.location.lat,j.results[0].geometry.location.lng),\\n  zoom:15,\\n  mapTypeId:google.maps.MapTypeId.ROADMAP\\n  };\\nvar map=new google.maps.Map(document.getElementById("a5"),mapProp);\\n}\\n\\ninitialize()\\n\\n\\n\\n\\n\\n\\n\\n\\n\\n\\n\\n    }\\n  }\\nxmlhttp.open("GET",n,true);\\nxmlhttp.send();\\n}\\n\\nloadXMLDoc()\\n\\n\\n\\n\\nact4()\\n}\\n</script>\\n<div id="a5">\\n</div>\\n<div id="a7">\\n\', escape=False)\nif auth.user and auth.user.email==message["Email_id"]:\n    response.write(\'\\n\\t\', escape=False)\n    response.write(form)\n    response.write(\'\\n\', escape=False)\nelse:\n    response.write(\'\\n\', escape=False)\n    if auth.user:\n        response.write(\'\\n\\t<h2>You are not owner</h2>\\n\', escape=False)\n    else:\n        response.write(\'\\n <h2>Not Logged In</h2>\\n\', escape=False)\n        pass\n    response.write(\'\\n</div>\\n</html>\\n\', escape=False)\n    response.write(\'<link href=\\\'http://fonts.googleapis.com/css?family=Sniglet\\\' rel=\\\'stylesheet\\\' type=\\\'text/css\\\'>\\n<link href="\', escape=False)\n    response.write(URL(\'static\', \'css/nav.css\'))\n    response.write(\'" rel="stylesheet" type="text/css" />\\n<table id="navigation" > \\n  <tr>\\n    <td><a href ="\', escape=False)\n    response.write(URL(r=request,f=\'my_activity\'))\n    response.write(\'">Check your activity</a></td>\\n    <td><a href="\', escape=False)\n    response.write(URL(r=request,f=\'create\',args=db.general_info))\n    response.write(\'">Add New Restaurent</a></td>\\n    \', escape=False)\n    if not auth.user:\n        response.write(\'\\n    <td>\', escape=False)\n        response.write(A(\'Login\', _href=URL(\'default\', \'user\', args=\'login\',\n        vars=dict(_next=URL(args=request.args, vars=request.vars)))))\n        response.write(\'</td>\\n    <td>\', escape=False)\n        response.write(A(\'register\', _href=URL(\'default\', \'user\', args=\'register\',\n        vars=dict(_next=URL(args=request.args, vars=request.vars)))))\n        response.write(\'</td>\\n\\n    \', escape=False)\n    else:\n        response.write(\'\\n    <td><a href ="\', escape=False)\n        response.write(URL(r=request,f=\'my_activity\'))\n        response.write(\'">Welcome \', escape=False)\n        response.write(auth.user.first_name)\n        response.write(\'</a></td>\\n     <td>\', escape=False)\n        response.write(A(\'Logout\', _href=URL(\'default\', \'user\', args=\'logout\',\n        vars=dict(_next=URL(args=request.args, vars=request.vars)))))\n        response.write(\'</td>\\n\\n    \', escape=False)\n        pass\n    response.write(\'\\n  </tr>\\n</table>\\n\\n<div id="logo"><a href="http://127.0.0.1:8000/nikhil/default/index"><img src="\', escape=False)\n    response.write(URL(\'static\', \'images/LOGO.png\'))\n    response.write(\'"></a></div>\\n\\n\', escape=False)'
p7
sS'snapshot'
p8
(dp9
S'exception'
p10
(dp11
S'__module__'
p12
S"'gluon.rocket'"
p13
sS'__getslice__'
p14
S"<method-wrapper '__getslice__' of SocketTimeout object>"
p15
sS'__str__'
p16
S"<method-wrapper '__str__' of SocketTimeout object>"
p17
sS'__reduce__'
p18
S'<built-in method __reduce__ of SocketTimeout object>'
p19
sS'__dict__'
p20
S'{}'
p21
sS'__sizeof__'
p22
S'<built-in method __sizeof__ of SocketTimeout object>'
p23
sS'__weakref__'
p24
S'None'
p25
sS'__init__'
p26
S"<method-wrapper '__init__' of SocketTimeout object>"
p27
sS'__setattr__'
p28
S"<method-wrapper '__setattr__' of SocketTimeout object>"
p29
sS'__reduce_ex__'
p30
S'<built-in method __reduce_ex__ of SocketTimeout object>'
p31
sS'__new__'
p32
S'<built-in method __new__ of type object>'
p33
sS'__format__'
p34
S'<built-in method __format__ of SocketTimeout object>'
p35
sS'__class__'
p36
S"<class 'gluon.rocket.SocketTimeout'>"
p37
sS'__doc__'
p38
S"'Exception for when a socket times out between requests.'"
p39
sS'__getitem__'
p40
S"<method-wrapper '__getitem__' of SocketTimeout object>"
p41
sS'__setstate__'
p42
S'<built-in method __setstate__ of SocketTimeout object>'
p43
sS'__getattribute__'
p44
S"<method-wrapper '__getattribute__' of SocketTimeout object>"
p45
sS'args'
p46
S"('Socket timed out before request.',)"
p47
sS'__subclasshook__'
p48
S'<built-in method __subclasshook__ of type object>'
p49
sS'__unicode__'
p50
S'<built-in method __unicode__ of SocketTimeout object>'
p51
sS'__delattr__'
p52
S"<method-wrapper '__delattr__' of SocketTimeout object>"
p53
sS'__repr__'
p54
S"<method-wrapper '__repr__' of SocketTimeout object>"
p55
sS'__hash__'
p56
S"<method-wrapper '__hash__' of SocketTimeout object>"
p57
ssS'evalue'
p58
S'Socket timed out before request.'
p59
sS'frames'
p60
(lp61
(dp62
S'file'
p63
S'/home/nikhil/itws2-project/web2py/gluon/rocket.py'
p64
sS'dump'
p65
(dp66
S'self'
p67
S'<WSGIWorker(Thread-5, started daemon 139655533504256)>'
p68
sS'conn'
p69
S'<gluon.rocket.Connection object>'
p70
sS'self.run_app'
p71
S'<bound method WSGIWorker.run_app of <WSGIWorker(Thread-5, started daemon 139655533504256)>>'
p72
ssS'lnum'
p73
I1337
sS'lines'
p74
(dp75
I1332
S'            # Enter connection serve loop'
p76
sI1333
S'            while True:'
p77
sI1334
S'                if __debug__:'
p78
sI1335
S"                    self.err_log.debug('Serving a request')"
p79
sI1336
S'                try:'
p80
sI1337
S'                    self.run_app(conn)'
p81
sI1338
S'                except:'
p82
sI1339
S'                    exc = sys.exc_info()'
p83
sI1340
S'                    handled = self._handleError(*exc)'
p84
sI1341
S'                    if handled:'
p85
ssS'call'
p86
S'(self=<WSGIWorker(Thread-5, started daemon 139655533504256)>)'
p87
sS'func'
p88
S'run'
p89
sa(dp90
g63
S'/home/nikhil/itws2-project/web2py/gluon/rocket.py'
p91
sg65
(dp92
S'self'
p93
S'<WSGIWorker(Thread-5, started daemon 139655533504256)>'
p94
sS'self.environ'
p95
S"{'HTTP_ACCEPT': 'text/html,application/xhtml+xml,application/xml;q=0.9,*/*;q=0.8', 'HTTP_ACCEPT_ENCODING': 'gzip, deflate', 'HTTP_ACCEPT_LANGUAGE': 'en-US,en;q=0.5', 'HTTP_CONNECTION': 'keep-alive', 'HTTP_COOKIE': 'session_id_nikhil=127.0.0.1-32ac0cde-0300-4617-8...in=127.0.0.1-ab251f37-f339-4ad8-aa41-bf1426472ea9', 'HTTP_HOST': '127.0.0.1:8000', 'HTTP_USER_AGENT': 'Mozilla/5.0 (X11; Ubuntu; Linux x86_64; rv:28.0) Gecko/20100101 Firefox/28.0', 'PATH_INFO': '/nikhil/default/entry/18', 'QUERY_STRING': '', 'REMOTE_ADDR': '127.0.0.1', ...}"
p96
sS'sock_file'
p97
S'<socket._fileobject object>'
p98
sS'environ'
p99
S'undefined'
p100
sS'self.build_environ'
p101
S'<bound method WSGIWorker.build_environ of <WSGIWorker(Thread-5, started daemon 139655533504256)>>'
p102
sS'conn'
p103
S'<gluon.rocket.Connection object>'
p104
ssg73
I1830
sg74
(dp105
I1825
S'        else:'
p106
sI1826
S'            sock_file = conn.makefile(BUF_SIZE)'
p107
sI1827
S''
sI1828
S'        try:'
p108
sI1829
S'            # Read the headers and build our WSGI environment'
p109
sI1830
S'            self.environ = environ = self.build_environ(sock_file, conn)'
p110
sI1831
S''
sI1832
S'            # Handle 100 Continue'
p111
sI1833
S"            if environ.get('HTTP_EXPECT', '') == '100-continue':"
p112
sI1834
S"                res = environ['SERVER_PROTOCOL'] + ' 100 Continue\\r\\n\\r\\n'"
p113
ssg86
S'(self=<WSGIWorker(Thread-5, started daemon 139655533504256)>, conn=<gluon.rocket.Connection object>)'
p114
sg88
S'run_app'
p115
sa(dp116
g63
S'/home/nikhil/itws2-project/web2py/gluon/rocket.py'
p117
sg65
(dp118
S'sock_file'
p119
S'<socket._fileobject object>'
p120
sS'self.read_request_line'
p121
S'<bound method WSGIWorker.read_request_line of <W...orker(Thread-5, started daemon 139655533504256)>>'
p122
sS'self'
p123
S'<WSGIWorker(Thread-5, started daemon 139655533504256)>'
p124
sS'request'
p125
g100
ssg73
I1650
sg74
(dp126
I1645
S'                                      "wsgiorg.futures": executor.futures})'
p127
sI1646
S''
sI1647
S'    def build_environ(self, sock_file, conn):'
p128
sI1648
S'        """ Build the execution environment. """'
p129
sI1649
S'        # Grab the request line'
p130
sI1650
S'        request = self.read_request_line(sock_file)'
p131
sI1651
S''
sI1652
S'        # Copy the Base Environment'
p132
sI1653
S'        environ = self.base_environ.copy()'
p133
sI1654
S''
ssg86
S'(self=<WSGIWorker(Thread-5, started daemon 139655533504256)>, sock_file=<socket._fileobject object>, conn=<gluon.rocket.Connection object>)'
p134
sg88
S'build_environ'
p135
sa(dp136
g63
S'/home/nikhil/itws2-project/web2py/gluon/rocket.py'
p137
sg65
(dp138
S'global SocketTimeout'
p139
S"<class 'gluon.rocket.SocketTimeout'>"
p140
ssg73
I1401
sg74
(dp141
I1396
S''
sI1397
S'                d = sock_file.readline()'
p142
sI1398
S'                if PY3K:'
p143
sI1399
S"                    d = d.decode('ISO-8859-1')"
p144
sI1400
S'        except socket.timeout:'
p145
sI1401
S"            raise SocketTimeout('Socket timed out before request.')"
p146
sI1402
S'        except TypeError:'
p147
sI1403
S'            raise SocketClosed('
p148
sI1404
S"                'SSL bug caused closure of socket.  See '"
p149
sI1405
S'                \'"https://groups.google.com/d/topic/web2py/P_Gw0JxWzCs".\')'
p150
ssg86
S'(self=<WSGIWorker(Thread-5, started daemon 139655533504256)>, sock_file=<socket._fileobject object>)'
p151
sg88
S'read_request_line'
p152
sasS'pyver'
p153
S'Python 2.7.5+: /usr/bin/python (prefix: /usr)'
p154
sS'etype'
p155
S"<class 'gluon.rocket.SocketTimeout'>"
p156
sS'date'
p157
S'Sat Apr 26 17:41:35 2014'
p158
sS'locals'
p159
(dp160
S'sock_file'
p161
S'<socket._fileobject object>'
p162
sS'self'
p163
S'<WSGIWorker(Thread-5, started daemon 139655533504256)>'
p164
sssS'traceback'
p165
S'Traceback (most recent call last):\n  File "/home/nikhil/itws2-project/web2py/gluon/rocket.py", line 1337, in run\n    self.run_app(conn)\n  File "/home/nikhil/itws2-project/web2py/gluon/rocket.py", line 1830, in run_app\n    self.environ = environ = self.build_environ(sock_file, conn)\n  File "/home/nikhil/itws2-project/web2py/gluon/rocket.py", line 1650, in build_environ\n    request = self.read_request_line(sock_file)\n  File "/home/nikhil/itws2-project/web2py/gluon/rocket.py", line 1401, in read_request_line\n    raise SocketTimeout(\'Socket timed out before request.\')\nSocketTimeout: Socket timed out before request.\n'
p166
s.