(dp1
S'output'
p2
S"<class 'sqlite3.OperationalError'> Cannot add a UNIQUE column"
p3
sS'layer'
p4
S'/home/nikhil/Desktop/itws project/web2py/applications/nikhil/models/db.py'
p5
sS'code'
p6
S'db=DAL("sqlite://storage.sqlite")\ndb.define_table(\'general_info\',Field(\'fname\',requires=IS_NOT_EMPTY()),Field(\'city\',requires=IS_NOT_EMPTY()),Field(\'Address\',requires=IS_NOT_EMPTY()),Field(\'Phone\'),Field(\'Email_id\',requires=IS_EMAIL(error_message="invalid email")),Field(\'Pure_Veg\',\'boolean\'),Field(\'Ratings\',requires=IS_FLOAT_IN_RANGE(0,5)))\ndb.define_table(\'reviews\',Field(\'place_id\'),Field(\'person\'),Field(\'comment\',\'text\'),Field(\'review\',requires=IS_FLOAT_IN_RANGE(0,5)),Field(\'date_made\', default=request.now))\ndb.define_table(\'constants\',Field(\'t\',requires=IS_NOT_EMPTY()))\ndb.define_table(\'gallery\',Field(\'place\',requires=IS_NOT_EMPTY()),Field(\'image\',\'upload\',uploadfield=\'picture_file\'),Field(\'picture_file\'))\n\nfrom gluon.tools import Auth, Crud, Service, PluginManager, prettydate\nauth = Auth(db)\ncrud, service, plugins = Crud(db), Service(), PluginManager()\n#auth.define_tables()\n\n\n#from gluon.contrib.login_methods.rpx_account import RPXAccount\n#auth.settings.actions_disabled=[\'register\',\'change_password\',\'request_reset_password\']\n#auth.settings.login_form = RPXAccount(request,api_key=\'\',domain=\'...\',url = "http://www.facebook.com/%s/default/user/login" % request.application)\n\nauth_table = db.define_table(\n    auth.settings.table_user_name,\n    Field(\'first_name\', length=128, default=""),\n    Field(\'last_name\', length=128, default=""),\n    Field(\'username\', length=128, default="", unique=True),\n    Field(\'password\', \'password\', length=256,\n          readable=False, label=\'Password\'),\n    Field(\'registration_id\', length=128, default= "",\n          writable=False, readable=False))\n\nauth_table.username.requires = IS_NOT_IN_DB(db, auth_table.username)\n\nauth.define_tables()\nconsumer_key = p6CexAYaSVFcNn2t1AdD2Q\nconsumer_secret = hXGrTHv3FWh6APF5lQHb8rlOcPfmelfIfVQmYCKqds\n\nrequest_token_url = \'https://twitter.com/oauth/request_token\'\naccess_token_url = \'https://twitter.com/oauth/access_token\'\nauthorize_url = \'https://twitter.com/oauth/authorize\'\n\nimport gluon.contrib.simplejson as json\n\nclass TwitterOAuth(OAuthAccount):\n    def get_user(self):        \n        if self.accessToken() is not None:            \n            client = Client(self.consumer, self.accessToken())\n            resp, content = client.request(\'http://api.twitter.com/1/account/verify_credentials.json\')\n            if resp[\'status\'] != \'200\':\n                # cannot get user info. should check status\n                return None\n            u = json.loads(content)            \n            return dict(username=u[\'screen_name\'], name=u[\'name\'], registration_id=str(u[\'id\']))\n\n\n\nauth.settings.login_form=TwitterOAuth(globals(),consumer_key,consumer_secret, \nauthorize_url, request_token_url, access_token_url)\n \n  \n  \n\n'
p7
sS'snapshot'
p8
(dp9
S'exception'
p10
(dp11
S'__module__'
p12
S"'sqlite3'"
p13
sS'__getslice__'
p14
S"<method-wrapper '__getslice__' of OperationalError object>"
p15
sS'__str__'
p16
S"<method-wrapper '__str__' of OperationalError object>"
p17
sS'__reduce__'
p18
S'<built-in method __reduce__ of OperationalError object>'
p19
sS'__dict__'
p20
S'{}'
p21
sS'__sizeof__'
p22
S'<built-in method __sizeof__ of OperationalError object>'
p23
sS'__weakref__'
p24
S'None'
p25
sS'__init__'
p26
S"<method-wrapper '__init__' of OperationalError object>"
p27
sS'__setattr__'
p28
S"<method-wrapper '__setattr__' of OperationalError object>"
p29
sS'__reduce_ex__'
p30
S'<built-in method __reduce_ex__ of OperationalError object>'
p31
sS'__new__'
p32
S'<built-in method __new__ of type object>'
p33
sS'__format__'
p34
S'<built-in method __format__ of OperationalError object>'
p35
sS'__class__'
p36
S"<class 'sqlite3.OperationalError'>"
p37
sS'__doc__'
p38
S'None'
p39
sS'__getitem__'
p40
S"<method-wrapper '__getitem__' of OperationalError object>"
p41
sS'__setstate__'
p42
S'<built-in method __setstate__ of OperationalError object>'
p43
sS'__getattribute__'
p44
S"<method-wrapper '__getattribute__' of OperationalError object>"
p45
sS'args'
p46
S"('Cannot add a UNIQUE column',)"
p47
sS'__subclasshook__'
p48
S'<built-in method __subclasshook__ of type object>'
p49
sS'__unicode__'
p50
S'<built-in method __unicode__ of OperationalError object>'
p51
sS'__delattr__'
p52
S"<method-wrapper '__delattr__' of OperationalError object>"
p53
sS'__repr__'
p54
S"<method-wrapper '__repr__' of OperationalError object>"
p55
sS'__hash__'
p56
S"<method-wrapper '__hash__' of OperationalError object>"
p57
ssS'evalue'
p58
S'Cannot add a UNIQUE column'
p59
sS'request'
p60
cgluon.html
XML_unpickle
p61
(S's\xc4S\x00\x00<div><table><tr><td style="font-weight:bold;vertical-align:top;">ajax</td><td style="vertical-align:top;">:</td><td><div>False</div></td></tr><tr><td style="font-weight:bold;vertical-align:top;">application</td><td style="vertical-align:top;">:</td><td><div>nikhil</div></td></tr><tr><td style="font-weight:bold;vertical-align:top;">args</td><td style="vertical-align:top;">:</td><td><div><table></table></div></td></tr><tr><td style="font-weight:bold;vertical-align:top;">cid</td><td style="vertical-align:top;">:</td><td><div>None</div></td></tr><tr><td style="font-weight:bold;vertical-align:top;">client</td><td style="vertical-align:top;">:</td><td><div>127.0.0.1</div></td></tr><tr><td style="font-weight:bold;vertical-align:top;">controller</td><td style="vertical-align:top;">:</td><td><div>default</div></td></tr><tr><td style="font-weight:bold;vertical-align:top;">cookies</td><td style="vertical-align:top;">:</td><td><div><table><tr><td style="font-weight:bold;vertical-align:top;">session_id_nikhil</td><td style="vertical-align:top;">:</td><td><div>127.0.0.1-184e09ab-bab6-4b0b-9e95-509e6e22b6a5<table><tr><td style="font-weight:bold;vertical-align:top;">comment</td><td style="vertical-align:top;">:</td><td><div></div></td></tr><tr><td style="font-weight:bold;vertical-align:top;">domain</td><td style="vertical-align:top;">:</td><td><div></div></td></tr><tr><td style="font-weight:bold;vertical-align:top;">expires</td><td style="vertical-align:top;">:</td><td><div></div></td></tr><tr><td style="font-weight:bold;vertical-align:top;">httponly</td><td style="vertical-align:top;">:</td><td><div></div></td></tr><tr><td style="font-weight:bold;vertical-align:top;">max-age</td><td style="vertical-align:top;">:</td><td><div></div></td></tr><tr><td style="font-weight:bold;vertical-align:top;">path</td><td style="vertical-align:top;">:</td><td><div></div></td></tr><tr><td style="font-weight:bold;vertical-align:top;">secure</td><td style="vertical-align:top;">:</td><td><div></div></td></tr><tr><td style="font-weight:bold;vertical-align:top;">version</td><td style="vertical-align:top;">:</td><td><div></div></td></tr></table></div></td></tr><tr><td style="font-weight:bold;vertical-align:top;">session_id_welcome</td><td style="vertical-align:top;">:</td><td><div>127.0.0.1-9ee43838-5392-4433-a4c0-9d4c8ad8c367<table><tr><td style="font-weight:bold;vertical-align:top;">comment</td><td style="vertical-align:top;">:</td><td><div></div></td></tr><tr><td style="font-weight:bold;vertical-align:top;">domain</td><td style="vertical-align:top;">:</td><td><div></div></td></tr><tr><td style="font-weight:bold;vertical-align:top;">expires</td><td style="vertical-align:top;">:</td><td><div></div></td></tr><tr><td style="font-weight:bold;vertical-align:top;">httponly</td><td style="vertical-align:top;">:</td><td><div></div></td></tr><tr><td style="font-weight:bold;vertical-align:top;">max-age</td><td style="vertical-align:top;">:</td><td><div></div></td></tr><tr><td style="font-weight:bold;vertical-align:top;">path</td><td style="vertical-align:top;">:</td><td><div></div></td></tr><tr><td style="font-weight:bold;vertical-align:top;">secure</td><td style="vertical-align:top;">:</td><td><div></div></td></tr><tr><td style="font-weight:bold;vertical-align:top;">version</td><td style="vertical-align:top;">:</td><td><div></div></td></tr></table></div></td></tr></table></div></td></tr><tr><td style="font-weight:bold;vertical-align:top;">env</td><td style="vertical-align:top;">:</td><td><div><table><tr><td style="font-weight:bold;vertical-align:top;">HTTP_ACCEPT</td><td style="vertical-align:top;">:</td><td><div>text/html,application/xhtml+xml,application/xml;q=0.9,image/webp,*/*;q=0.8</div></td></tr><tr><td style="font-weight:bold;vertical-align:top;">HTTP_ACCEPT_ENCODING</td><td style="vertical-align:top;">:</td><td><div>gzip,deflate,sdch</div></td></tr><tr><td style="font-weight:bold;vertical-align:top;">HTTP_ACCEPT_LANGUAGE</td><td style="vertical-align:top;">:</td><td><div>en-US,en;q=0.8</div></td></tr><tr><td style="font-weight:bold;vertical-align:top;">HTTP_CONNECTION</td><td style="vertical-align:top;">:</td><td><div>keep-alive</div></td></tr><tr><td style="font-weight:bold;vertical-align:top;">HTTP_COOKIE</td><td style="vertical-align:top;">:</td><td><div>session_id_welcome=127.0.0.1-9ee43838-5392-4433-a4c0-9d4c8ad8c367; session_id_nikhil=127.0.0.1-184e09ab-bab6-4b0b-9e95-509e6e22b6a5</div></td></tr><tr><td style="font-weight:bold;vertical-align:top;">HTTP_HOST</td><td style="vertical-align:top;">:</td><td><div>127.0.0.1:8000</div></td></tr><tr><td style="font-weight:bold;vertical-align:top;">HTTP_USER_AGENT</td><td style="vertical-align:top;">:</td><td><div>Mozilla/5.0 (X11; Linux x86_64) AppleWebKit/537.36 (KHTML, like Gecko) Ubuntu Chromium/33.0.1750.152 Chrome/33.0.1750.152 Safari/537.36</div></td></tr><tr><td style="font-weight:bold;vertical-align:top;">PATH_INFO</td><td style="vertical-align:top;">:</td><td><div>/nikhil/default/user</div></td></tr><tr><td style="font-weight:bold;vertical-align:top;">QUERY_STRING</td><td style="vertical-align:top;">:</td><td><div></div></td></tr><tr><td style="font-weight:bold;vertical-align:top;">REMOTE_ADDR</td><td style="vertical-align:top;">:</td><td><div>127.0.0.1</div></td></tr><tr><td style="font-weight:bold;vertical-align:top;">REMOTE_PORT</td><td style="vertical-align:top;">:</td><td><div>40766</div></td></tr><tr><td style="font-weight:bold;vertical-align:top;">REQUEST_METHOD</td><td style="vertical-align:top;">:</td><td><div>GET</div></td></tr><tr><td style="font-weight:bold;vertical-align:top;">SCRIPT_NAME</td><td style="vertical-align:top;">:</td><td><div></div></td></tr><tr><td style="font-weight:bold;vertical-align:top;">SERVER_NAME</td><td style="vertical-align:top;">:</td><td><div>Inspiron-3537</div></td></tr><tr><td style="font-weight:bold;vertical-align:top;">SERVER_PORT</td><td style="vertical-align:top;">:</td><td><div>8000</div></td></tr><tr><td style="font-weight:bold;vertical-align:top;">SERVER_PROTOCOL</td><td style="vertical-align:top;">:</td><td><div>HTTP/1.1</div></td></tr><tr><td style="font-weight:bold;vertical-align:top;">SERVER_SOFTWARE</td><td style="vertical-align:top;">:</td><td><div>Rocket 1.2.6</div></td></tr><tr><td style="font-weight:bold;vertical-align:top;">app_folders</td><td style="vertical-align:top;">:</td><td><div>set([&#x27;/home/nikhil/Desktop/itws project/web2py/applications/nikhil/&#x27;, &#x27;/home/nikhil/Desktop/itws project/web2py/applications/welcome/&#x27;])</div></td></tr><tr><td style="font-weight:bold;vertical-align:top;">applications_parent</td><td style="vertical-align:top;">:</td><td><div>/home/nikhil/Desktop/itws project/web2py</div></td></tr><tr><td style="font-weight:bold;vertical-align:top;">cmd_args</td><td style="vertical-align:top;">:</td><td><div><table></table></div></td></tr><tr><td style="font-weight:bold;vertical-align:top;">cmd_options</td><td style="vertical-align:top;">:</td><td><div>&lt;Values at 0x205e4d0: {&#x27;verbose&#x27;: False, &#x27;ip&#x27;: &#x27;127.0.0.1&#x27;, &#x27;debuglevel&#x27;: 30, &#x27;with_scheduler&#x27;: False, &#x27;ips&#x27;: [&#x27;127.0.1.1&#x27;], &#x27;shutdown_timeout&#x27;: 5, &#x27;taskbar&#x27;: False, &#x27;with_coverage&#x27;: False, &#x27;port&#x27;: 8000, &#x27;maxthreads&#x27;: None, &#x27;softcron&#x27;: False, &#x27;server_name&#x27;: &#x27;Inspiron-3537&#x27;, &#x27;bpython&#x27;: False, &#x27;nogui&#x27;: True, &#x27;pid_filename&#x27;: &#x27;httpserver.pid&#x27;, &#x27;extcron&#x27;: False, &#x27;runcron&#x27;: False, &#x27;run_system_tests&#x27;: False, &#x27;test&#x27;: None, &#x27;folder&#x27;: &#x27;/home/nikhil/Desktop/itws project/web2py&#x27;, &#x27;config&#x27;: &#x27;&#x27;, &#x27;minthreads&#x27;: None, &#x27;shell&#x27;: None, &#x27;run&#x27;: &#x27;&#x27;, &#x27;log_filename&#x27;: &#x27;httpserver.log&#x27;, &#x27;profiler_dir&#x27;: None, &#x27;args&#x27;: [&#x27;&#x27;], &#x27;socket_timeout&#x27;: 5, &#x27;ssl_ca_certificate&#x27;: None, &#x27;scheduler&#x27;: None, &#x27;interfaces&#x27;: None, &#x27;ssl_private_key&#x27;: &#x27;&#x27;, &#x27;scheduler_groups&#x27;: None, &#x27;password&#x27;: &#x27;nik123&#x27;, &#x27;request_queue_size&#x27;: 5, &#x27;ssl_certificate&#x27;: &#x27;&#x27;, &#x27;cronjob&#x27;: False, &#x27;numthreads&#x27;: None, &#x27;quiet&#x27;: False, &#x27;import_models&#x27;: False, &#x27;timeout&#x27;: 10, &#x27;plain&#x27;: False, &#x27;nobanner&#x27;: False}&gt;</div></td></tr><tr><td style="font-weight:bold;vertical-align:top;">db_sessions</td><td style="vertical-align:top;">:</td><td><div>set([])</div></td></tr><tr><td style="font-weight:bold;vertical-align:top;">debugging</td><td style="vertical-align:top;">:</td><td><div>False</div></td></tr><tr><td style="font-weight:bold;vertical-align:top;">gluon_parent</td><td style="vertical-align:top;">:</td><td><div>/home/nikhil/Desktop/itws project/web2py</div></td></tr><tr><td style="font-weight:bold;vertical-align:top;">http_accept</td><td style="vertical-align:top;">:</td><td><div>text/html,application/xhtml+xml,application/xml;q=0.9,image/webp,*/*;q=0.8</div></td></tr><tr><td style="font-weight:bold;vertical-align:top;">http_accept_encoding</td><td style="vertical-align:top;">:</td><td><div>gzip,deflate,sdch</div></td></tr><tr><td style="font-weight:bold;vertical-align:top;">http_accept_language</td><td style="vertical-align:top;">:</td><td><div>en-US,en;q=0.8</div></td></tr><tr><td style="font-weight:bold;vertical-align:top;">http_connection</td><td style="vertical-align:top;">:</td><td><div>keep-alive</div></td></tr><tr><td style="font-weight:bold;vertical-align:top;">http_cookie</td><td style="vertical-align:top;">:</td><td><div>session_id_welcome=127.0.0.1-9ee43838-5392-4433-a4c0-9d4c8ad8c367; session_id_nikhil=127.0.0.1-184e09ab-bab6-4b0b-9e95-509e6e22b6a5</div></td></tr><tr><td style="font-weight:bold;vertical-align:top;">http_host</td><td style="vertical-align:top;">:</td><td><div>127.0.0.1:8000</div></td></tr><tr><td style="font-weight:bold;vertical-align:top;">http_user_agent</td><td style="vertical-align:top;">:</td><td><div>Mozilla/5.0 (X11; Linux x86_64) AppleWebKit/537.36 (KHTML, like Gecko) Ubuntu Chromium/33.0.1750.152 Chrome/33.0.1750.152 Safari/537.36</div></td></tr><tr><td style="font-weight:bold;vertical-align:top;">is_jython</td><td style="vertical-align:top;">:</td><td><div>False</div></td></tr><tr><td style="font-weight:bold;vertical-align:top;">is_pypy</td><td style="vertical-align:top;">:</td><td><div>False</div></td></tr><tr><td style="font-weight:bold;vertical-align:top;">is_source</td><td style="vertical-align:top;">:</td><td><div>True</div></td></tr><tr><td style="font-weight:bold;vertical-align:top;">local_hosts</td><td style="vertical-align:top;">:</td><td><div><table><tr><td><div>Inspiron-3537</div></td></tr><tr><td><div>::1</div></td></tr><tr><td><div>127.0.1.1</div></td></tr><tr><td><div>::ffff:127.0.0.1</div></td></tr><tr><td><div>127.0.0.1</div></td></tr></table></div></td></tr><tr><td style="font-weight:bold;vertical-align:top;">path_info</td><td style="vertical-align:top;">:</td><td><div>/nikhil/default/user</div></td></tr><tr><td style="font-weight:bold;vertical-align:top;">query_string</td><td style="vertical-align:top;">:</td><td><div></div></td></tr><tr><td style="font-weight:bold;vertical-align:top;">remote_addr</td><td style="vertical-align:top;">:</td><td><div>127.0.0.1</div></td></tr><tr><td style="font-weight:bold;vertical-align:top;">remote_port</td><td style="vertical-align:top;">:</td><td><div>40766</div></td></tr><tr><td style="font-weight:bold;vertical-align:top;">request_method</td><td style="vertical-align:top;">:</td><td><div>GET</div></td></tr><tr><td style="font-weight:bold;vertical-align:top;">request_uri</td><td style="vertical-align:top;">:</td><td><div>/nikhil/default/user</div></td></tr><tr><td style="font-weight:bold;vertical-align:top;">script_name</td><td style="vertical-align:top;">:</td><td><div></div></td></tr><tr><td style="font-weight:bold;vertical-align:top;">server_name</td><td style="vertical-align:top;">:</td><td><div>Inspiron-3537</div></td></tr><tr><td style="font-weight:bold;vertical-align:top;">server_port</td><td style="vertical-align:top;">:</td><td><div>8000</div></td></tr><tr><td style="font-weight:bold;vertical-align:top;">server_protocol</td><td style="vertical-align:top;">:</td><td><div>HTTP/1.1</div></td></tr><tr><td style="font-weight:bold;vertical-align:top;">server_software</td><td style="vertical-align:top;">:</td><td><div>Rocket 1.2.6</div></td></tr><tr><td style="font-weight:bold;vertical-align:top;">web2py_path</td><td style="vertical-align:top;">:</td><td><div>/home/nikhil/Desktop/itws project/web2py</div></td></tr><tr><td style="font-weight:bold;vertical-align:top;">web2py_version</td><td style="vertical-align:top;">:</td><td><div>2.9.4-stable+timestamp.2014.03.05.04.44.09</div></td></tr><tr><td style="font-weight:bold;vertical-align:top;">wsgi.errors</td><td style="vertical-align:top;">:</td><td><div>&lt;open file &#x27;&lt;stderr&gt;&#x27;, mode &#x27;w&#x27; at 0x7f53639b81e0&gt;</div></td></tr><tr><td style="font-weight:bold;vertical-align:top;">wsgi.file_wrapper</td><td style="vertical-align:top;">:</td><td><div>&lt;class wsgiref.util.FileWrapper at 0x1fb1ae0&gt;</div></td></tr><tr><td style="font-weight:bold;vertical-align:top;">wsgi.input</td><td style="vertical-align:top;">:</td><td><div>&lt;socket._fileobject object at 0x7f533410bad0&gt;</div></td></tr><tr><td style="font-weight:bold;vertical-align:top;">wsgi.multiprocess</td><td style="vertical-align:top;">:</td><td><div>False</div></td></tr><tr><td style="font-weight:bold;vertical-align:top;">wsgi.multithread</td><td style="vertical-align:top;">:</td><td><div>True</div></td></tr><tr><td style="font-weight:bold;vertical-align:top;">wsgi.run_once</td><td style="vertical-align:top;">:</td><td><div>False</div></td></tr><tr><td style="font-weight:bold;vertical-align:top;">wsgi.url_scheme</td><td style="vertical-align:top;">:</td><td><div>http</div></td></tr><tr><td style="font-weight:bold;vertical-align:top;">wsgi.version</td><td style="vertical-align:top;">:</td><td><div><table><tr><td><div>1</div></td></tr><tr><td><div>0</div></td></tr></table></div></td></tr><tr><td style="font-weight:bold;vertical-align:top;">wsgi_errors</td><td style="vertical-align:top;">:</td><td><div>&lt;open file &#x27;&lt;stderr&gt;&#x27;, mode &#x27;w&#x27; at 0x7f53639b81e0&gt;</div></td></tr><tr><td style="font-weight:bold;vertical-align:top;">wsgi_file_wrapper</td><td style="vertical-align:top;">:</td><td><div>&lt;class wsgiref.util.FileWrapper at 0x1fb1ae0&gt;</div></td></tr><tr><td style="font-weight:bold;vertical-align:top;">wsgi_input</td><td style="vertical-align:top;">:</td><td><div>&lt;socket._fileobject object at 0x7f533410bad0&gt;</div></td></tr><tr><td style="font-weight:bold;vertical-align:top;">wsgi_multiprocess</td><td style="vertical-align:top;">:</td><td><div>False</div></td></tr><tr><td style="font-weight:bold;vertical-align:top;">wsgi_multithread</td><td style="vertical-align:top;">:</td><td><div>True</div></td></tr><tr><td style="font-weight:bold;vertical-align:top;">wsgi_run_once</td><td style="vertical-align:top;">:</td><td><div>False</div></td></tr><tr><td style="font-weight:bold;vertical-align:top;">wsgi_url_scheme</td><td style="vertical-align:top;">:</td><td><div>http</div></td></tr><tr><td style="font-weight:bold;vertical-align:top;">wsgi_version</td><td style="vertical-align:top;">:</td><td><div><table><tr><td><div>1</div></td></tr><tr><td><div>0</div></td></tr></table></div></td></tr></table></div></td></tr><tr><td style="font-weight:bold;vertical-align:top;">extension</td><td style="vertical-align:top;">:</td><td><div>html</div></td></tr><tr><td style="font-weight:bold;vertical-align:top;">folder</td><td style="vertical-align:top;">:</td><td><div>/home/nikhil/Desktop/itws project/web2py/applications/nikhil/</div></td></tr><tr><td style="font-weight:bold;vertical-align:top;">function</td><td style="vertical-align:top;">:</td><td><div>user</div></td></tr><tr><td style="font-weight:bold;vertical-align:top;">global_settings</td><td style="vertical-align:top;">:</td><td><div><table><tr><td style="font-weight:bold;vertical-align:top;">app_folders</td><td style="vertical-align:top;">:</td><td><div>set([&#x27;/home/nikhil/Desktop/itws project/web2py/applications/nikhil/&#x27;, &#x27;/home/nikhil/Desktop/itws project/web2py/applications/welcome/&#x27;])</div></td></tr><tr><td style="font-weight:bold;vertical-align:top;">applications_parent</td><td style="vertical-align:top;">:</td><td><div>/home/nikhil/Desktop/itws project/web2py</div></td></tr><tr><td style="font-weight:bold;vertical-align:top;">cmd_args</td><td style="vertical-align:top;">:</td><td><div><table></table></div></td></tr><tr><td style="font-weight:bold;vertical-align:top;">cmd_options</td><td style="vertical-align:top;">:</td><td><div>&lt;Values at 0x205e4d0: {&#x27;verbose&#x27;: False, &#x27;ip&#x27;: &#x27;127.0.0.1&#x27;, &#x27;debuglevel&#x27;: 30, &#x27;with_scheduler&#x27;: False, &#x27;ips&#x27;: [&#x27;127.0.1.1&#x27;], &#x27;shutdown_timeout&#x27;: 5, &#x27;taskbar&#x27;: False, &#x27;with_coverage&#x27;: False, &#x27;port&#x27;: 8000, &#x27;maxthreads&#x27;: None, &#x27;softcron&#x27;: False, &#x27;server_name&#x27;: &#x27;Inspiron-3537&#x27;, &#x27;bpython&#x27;: False, &#x27;nogui&#x27;: True, &#x27;pid_filename&#x27;: &#x27;httpserver.pid&#x27;, &#x27;extcron&#x27;: False, &#x27;runcron&#x27;: False, &#x27;run_system_tests&#x27;: False, &#x27;test&#x27;: None, &#x27;folder&#x27;: &#x27;/home/nikhil/Desktop/itws project/web2py&#x27;, &#x27;config&#x27;: &#x27;&#x27;, &#x27;minthreads&#x27;: None, &#x27;shell&#x27;: None, &#x27;run&#x27;: &#x27;&#x27;, &#x27;log_filename&#x27;: &#x27;httpserver.log&#x27;, &#x27;profiler_dir&#x27;: None, &#x27;args&#x27;: [&#x27;&#x27;], &#x27;socket_timeout&#x27;: 5, &#x27;ssl_ca_certificate&#x27;: None, &#x27;scheduler&#x27;: None, &#x27;interfaces&#x27;: None, &#x27;ssl_private_key&#x27;: &#x27;&#x27;, &#x27;scheduler_groups&#x27;: None, &#x27;password&#x27;: &#x27;nik123&#x27;, &#x27;request_queue_size&#x27;: 5, &#x27;ssl_certificate&#x27;: &#x27;&#x27;, &#x27;cronjob&#x27;: False, &#x27;numthreads&#x27;: None, &#x27;quiet&#x27;: False, &#x27;import_models&#x27;: False, &#x27;timeout&#x27;: 10, &#x27;plain&#x27;: False, &#x27;nobanner&#x27;: False}&gt;</div></td></tr><tr><td style="font-weight:bold;vertical-align:top;">db_sessions</td><td style="vertical-align:top;">:</td><td><div>set([])</div></td></tr><tr><td style="font-weight:bold;vertical-align:top;">debugging</td><td style="vertical-align:top;">:</td><td><div>False</div></td></tr><tr><td style="font-weight:bold;vertical-align:top;">gluon_parent</td><td style="vertical-align:top;">:</td><td><div>/home/nikhil/Desktop/itws project/web2py</div></td></tr><tr><td style="font-weight:bold;vertical-align:top;">is_jython</td><td style="vertical-align:top;">:</td><td><div>False</div></td></tr><tr><td style="font-weight:bold;vertical-align:top;">is_pypy</td><td style="vertical-align:top;">:</td><td><div>False</div></td></tr><tr><td style="font-weight:bold;vertical-align:top;">is_source</td><td style="vertical-align:top;">:</td><td><div>True</div></td></tr><tr><td style="font-weight:bold;vertical-align:top;">local_hosts</td><td style="vertical-align:top;">:</td><td><div><table><tr><td><div>Inspiron-3537</div></td></tr><tr><td><div>::1</div></td></tr><tr><td><div>127.0.1.1</div></td></tr><tr><td><div>::ffff:127.0.0.1</div></td></tr><tr><td><div>127.0.0.1</div></td></tr></table></div></td></tr><tr><td style="font-weight:bold;vertical-align:top;">web2py_version</td><td style="vertical-align:top;">:</td><td><div>2.9.4-stable+timestamp.2014.03.05.04.44.09</div></td></tr></table></div></td></tr><tr><td style="font-weight:bold;vertical-align:top;">is_https</td><td style="vertical-align:top;">:</td><td><div>False</div></td></tr><tr><td style="font-weight:bold;vertical-align:top;">is_local</td><td style="vertical-align:top;">:</td><td><div>True</div></td></tr><tr><td style="font-weight:bold;vertical-align:top;">is_restful</td><td style="vertical-align:top;">:</td><td><div>False</div></td></tr><tr><td style="font-weight:bold;vertical-align:top;">now</td><td style="vertical-align:top;">:</td><td><div>datetime.datetime(2014, 3, 27, 23, 3, 49, 567010)</div></td></tr><tr><td style="font-weight:bold;vertical-align:top;">raw_args</td><td style="vertical-align:top;">:</td><td><div></div></td></tr><tr><td style="font-weight:bold;vertical-align:top;">raw_extension</td><td style="vertical-align:top;">:</td><td><div>None</div></td></tr><tr><td style="font-weight:bold;vertical-align:top;">url</td><td style="vertical-align:top;">:</td><td><div>/nikhil/default/user</div></td></tr><tr><td style="font-weight:bold;vertical-align:top;">utcnow</td><td style="vertical-align:top;">:</td><td><div>datetime.datetime(2014, 3, 27, 17, 33, 49, 567039)</div></td></tr><tr><td style="font-weight:bold;vertical-align:top;">uuid</td><td style="vertical-align:top;">:</td><td><div>nikhil/127.0.0.1.2014-03-27.23-03-49.f171ec51-c879-4650-a19c-382c9f8593bc</div></td></tr><tr><td style="font-weight:bold;vertical-align:top;">wsgi</td><td style="vertical-align:top;">:</td><td><div>&lt;gluon.main.LazyWSGI object at 0x7f5354263850&gt;</div></td></tr></table></div>'
tRp62
sS'frames'
p63
(lp64
(dp65
S'file'
p66
S'/home/nikhil/Desktop/itws project/web2py/gluon/restricted.py'
p67
sS'dump'
p68
(dp69
S'environment'
p70
S"{'A': <class 'gluon.html.A'>, 'ANY_OF': <class 'gluon.validators.ANY_OF'>, 'Auth': <class 'gluon.tools.Auth'>, 'B': <class 'gluon.html.B'>, 'BEAUTIFY': <class 'gluon.html.BEAUTIFY'>, 'BODY': <class 'gluon.html.BODY'>, 'BR': <class 'gluon.html.BR'>, 'BUTTON': <class 'gluon.html.BUTTON'>, 'CAT': <class 'gluon.html.CAT'>, 'CENTER': <class 'gluon.html.CENTER'>, ...}"
p71
sS'ccode'
p72
S'<code object <module> at 0x7f53542510b0, file "/...web2py/applications/nikhil/models/db.py", line 1>'
p73
ssS'lnum'
p74
I217
sS'lines'
p75
(dp76
I212
S'    try:'
p77
sI213
S'        if isinstance(code, types.CodeType):'
p78
sI214
S'            ccode = code'
p79
sI215
S'        else:'
p80
sI216
S'            ccode = compile2(code, layer)'
p81
sI217
S'        exec ccode in environment'
p82
sI218
S'    except HTTP:'
p83
sI219
S'        raise'
p84
sI220
S'    except RestrictedError:'
p85
sI221
S'        # do not encapsulate (obfuscate) the original RestrictedError'
p86
ssS'call'
p87
S'(code=\'db=DAL("sqlite://storage.sqlite")\\ndb.define_tabl...l, request_token_url, access_token_url)\\n \\n  \\n  \\n\\n\', environment={\'A\': <class \'gluon.html.A\'>, \'ANY_OF\': <class \'gluon.validators.ANY_OF\'>, \'Auth\': <class \'gluon.tools.Auth\'>, \'B\': <class \'gluon.html.B\'>, \'BEAUTIFY\': <class \'gluon.html.BEAUTIFY\'>, \'BODY\': <class \'gluon.html.BODY\'>, \'BR\': <class \'gluon.html.BR\'>, \'BUTTON\': <class \'gluon.html.BUTTON\'>, \'CAT\': <class \'gluon.html.CAT\'>, \'CENTER\': <class \'gluon.html.CENTER\'>, ...}, layer=\'/home/nikhil/Desktop/itws project/web2py/applications/nikhil/models/db.py\')'
p88
sS'func'
p89
S'restricted'
p90
sa(dp91
g66
S'/home/nikhil/Desktop/itws project/web2py/applications/nikhil/models/db.py'
p92
sg68
(dp93
S'writable'
p94
S'undefined'
p95
sS'readable'
p96
g95
sS'builtinFalse'
p97
S'False'
p98
ssg74
I25
sg75
(dp99
I20
S'    Field(\'last_name\', length=128, default=""),'
p100
sI21
S'    Field(\'username\', length=128, default="", unique=True),'
p101
sI22
S"    Field('password', 'password', length=256,"
p102
sI23
S"          readable=False, label='Password'),"
p103
sI24
S'    Field(\'registration_id\', length=128, default= "",'
p104
sI25
S'          writable=False, readable=False))'
p105
sI26
S''
sI27
S'auth_table.username.requires = IS_NOT_IN_DB(db, auth_table.username)'
p106
sI28
S''
sI29
S'auth.define_tables()'
p107
ssg87
S'()'
p108
sg89
S'<module>'
p109
sa(dp110
g66
S'/home/nikhil/Desktop/itws project/web2py/gluon/dal.py'
p111
sg68
(dp112
S'fields'
p113
S'(<gluon.dal.Field object>, <gluon.dal.Field object>, <gluon.dal.Field object>, <gluon.dal.Field object>, <gluon.dal.Field object>)'
p114
sS'self'
p115
S'<DAL uri="sqlite://storage.sqlite">'
p116
sS'args'
p117
g21
sS'tablename'
p118
S"'auth_user'"
p119
sS'table'
p120
g95
sS'self.lazy_define_table'
p121
S'<bound method DAL.lazy_define_table of <DAL uri="sqlite://storage.sqlite">>'
p122
ssg74
I8223
sg75
(dp123
I8224
S'        if not tablename in self.tables:'
p124
sI8225
S'            self.tables.append(tablename)'
p125
sI8226
S'        return table'
p126
sI8227
S''
sI8218
S'                    % (tablename,invalid_args))'
p127
sI8219
S'        if self._lazy_tables and not tablename in self._LAZY_TABLES:'
p128
sI8220
S'            self._LAZY_TABLES[tablename] = (tablename,fields,args)'
p129
sI8221
S'            table = None'
p130
sI8222
S'        else:'
p131
sI8223
S'            table = self.lazy_define_table(tablename,*fields,**args)'
p132
ssg87
S'(self=<DAL uri="sqlite://storage.sqlite">, tablename=\'auth_user\', *fields=(<gluon.dal.Field object>, <gluon.dal.Field object>, <gluon.dal.Field object>, <gluon.dal.Field object>, <gluon.dal.Field object>), **args={})'
p133
sg89
S'define_table'
p134
sa(dp135
g66
S'/home/nikhil/Desktop/itws project/web2py/gluon/dal.py'
p136
sg68
(dp137
S'polymodel'
p138
S'None'
p139
ssg74
I8260
sg75
(dp140
I8256
S'                GLOBAL_LOCKER.acquire()'
p141
sI8257
S'                self._lastsql = self._adapter.create_table('
p142
sI8258
S'                    table,migrate=migrate,'
p143
sI8259
S'                    fake_migrate=fake_migrate,'
p144
sI8260
S'                    polymodel=polymodel)'
p145
sI8261
S'            finally:'
p146
sI8262
S'                GLOBAL_LOCKER.release()'
p147
sI8263
S'        else:'
p148
sI8264
S'            table._dbt = None'
p149
sI8255
S'            try:'
p150
ssg87
S'(self=<DAL uri="sqlite://storage.sqlite">, tablename=\'auth_user\', *fields=(<gluon.dal.Field object>, <gluon.dal.Field object>, <gluon.dal.Field object>, <gluon.dal.Field object>, <gluon.dal.Field object>), **args={})'
p151
sg89
S'lazy_define_table'
p152
sa(dp153
g66
S'/home/nikhil/Desktop/itws project/web2py/gluon/dal.py'
p154
sg68
(dp155
S'fake_migrate'
p156
g98
ssg74
I1132
sg75
(dp157
I1127
S'            if sql_fields != sql_fields_old:'
p158
sI1128
S'                self.migrate_table('
p159
sI1129
S'                    table,'
p160
sI1130
S'                    sql_fields, sql_fields_old,'
p161
sI1131
S'                    sql_fields_aux, None,'
p162
sI1132
S'                    fake_migrate=fake_migrate'
p163
sI1133
S'                    )'
p164
sI1134
S'        return query'
p165
sI1135
S''
sI1136
S'    def migrate_table('
p166
ssg87
S'(self=<gluon.dal.SQLiteAdapter object>, table=<Table auth_user (id,first_name,last_name,username,password,registration_id)>, migrate=True, fake_migrate=False, polymodel=None)'
p167
sg89
S'create_table'
p168
sa(dp169
g66
S'/home/nikhil/Desktop/itws project/web2py/gluon/dal.py'
p170
sg68
(dp171
S'self'
p172
S'<gluon.dal.SQLiteAdapter object>'
p173
sS'self.execute'
p174
S'<bound method SQLiteAdapter.execute of <gluon.dal.SQLiteAdapter object>>'
p175
sS'sub_query'
p176
S"'ALTER TABLE auth_user ADD username CHAR(128) UNIQUE;'"
p177
ssg74
I1245
sg75
(dp178
I1248
S'                        # in one transaction so we must commit'
p179
sI1249
S'                        # partial transactions and'
p180
sI1240
S'                    if fake_migrate:'
p181
sI1241
S'                        if db._adapter.commit_on_alter_table:'
p182
sI1242
S'                            self.save_dbt(table,sql_fields_current)'
p183
sI1243
S"                        self.log('faked!\\n', table)"
p184
sI1244
S'                    else:'
p185
sI1245
S'                        self.execute(sub_query)'
p186
sI1246
S'                        # Caveat: mysql, oracle and firebird'
p187
sI1247
S'                        # do not allow multiple alter table'
p188
ssg87
S"(self=<gluon.dal.SQLiteAdapter object>, table=<Table auth_user (id,first_name,last_name,username,password,registration_id)>, sql_fields={'first_name': {'length': 128, 'notnull': False, 'sortable': 2, 'sql': 'CHAR(128)', 'type': 'string', 'unique': False}, 'id': {'length': 512, 'notnull': False, 'sortable': 1, 'sql': 'INTEGER PRIMARY KEY AUTOINCREMENT', 'type': 'id', 'unique': False}, 'last_name': {'length': 128, 'notnull': False, 'sortable': 3, 'sql': 'CHAR(128)', 'type': 'string', 'unique': False}, 'password': {'length': 256, 'notnull': False, 'sortable': 5, 'sql': 'CHAR(256)', 'type': 'password', 'unique': False}, 'registration_id': {'length': 128, 'notnull': False, 'sortable': 6, 'sql': 'CHAR(128)', 'type': 'string', 'unique': False}, 'username': {'length': 128, 'notnull': False, 'sortable': 4, 'sql': 'CHAR(128) UNIQUE', 'type': 'string', 'unique': True}}, sql_fields_old={'address': {'length': 256, 'notnull': False, 'sortable': 5, 'sql': 'CHAR(256)', 'type': 'string', 'unique': False}, 'city': {'length': 128, 'notnull': False, 'sortable': 7, 'sql': 'CHAR(128)', 'type': 'string', 'unique': False}, 'email': {'length': 128, 'notnull': False, 'sortable': 4, 'sql': 'CHAR(128) UNIQUE', 'type': 'string', 'unique': True}, 'first_name': {'length': 128, 'notnull': False, 'sortable': 2, 'sql': 'CHAR(128)', 'type': 'string', 'unique': False}, 'id': {'length': 512, 'notnull': False, 'sortable': 1, 'sql': 'INTEGER PRIMARY KEY AUTOINCREMENT', 'type': 'id', 'unique': False}, 'last_name': {'length': 128, 'notnull': False, 'sortable': 3, 'sql': 'CHAR(128)', 'type': 'string', 'unique': False}, 'password': {'length': 512, 'notnull': False, 'sortable': 8, 'sql': 'CHAR(512)', 'type': 'password', 'unique': False}, 'postcode': {'length': 128, 'notnull': False, 'sortable': 6, 'sql': 'CHAR(128)', 'type': 'string', 'unique': False}, 'registration_id': {'length': 512, 'notnull': False, 'sortable': 11, 'sql': 'CHAR(512)', 'type': 'string', 'unique': False}, 'registration_key': {'length': 512, 'notnull': False, 'sortable': 9, 'sql': 'CHAR(512)', 'type': 'string', 'unique': False}, ...}, sql_fields_aux={'first_name': {'sql': 'CHAR(128)'}, 'id': {'sql': 'INTEGER PRIMARY KEY AUTOINCREMENT'}, 'last_name': {'sql': 'CHAR(128)'}, 'password': {'sql': 'CHAR(256)'}, 'registration_id': {'sql': 'CHAR(128)'}, 'username': {'sql': 'CHAR(128) UNIQUE'}}, logfile=None, fake_migrate=False)"
p189
sg89
S'migrate_table'
p190
sa(dp191
g66
S'/home/nikhil/Desktop/itws project/web2py/gluon/dal.py'
p192
sg68
(dp193
S'a'
S"('ALTER TABLE auth_user ADD username CHAR(128) UNIQUE;',)"
p194
sS'self'
p195
S'<gluon.dal.SQLiteAdapter object>'
p196
sS'b'
g21
sS'self.log_execute'
p197
S'<bound method SQLiteAdapter.log_execute of <gluon.dal.SQLiteAdapter object>>'
p198
ssg74
I1969
sg75
(dp199
I1964
S'        self.db._timings.append((command,time.time()-t0))'
p200
sI1965
S'        del self.db._timings[:-TIMINGSSIZE]'
p201
sI1966
S'        return ret'
p202
sI1967
S''
sI1968
S'    def execute(self, *a, **b):'
p203
sI1969
S'        return self.log_execute(*a, **b)'
p204
sI1970
S''
sI1971
S'    def represent(self, obj, fieldtype):'
p205
sI1972
S'        field_is_type = fieldtype.startswith'
p206
sI1973
S'        if isinstance(obj, CALLABLETYPES):'
p207
ssg87
S"(self=<gluon.dal.SQLiteAdapter object>, *a=('ALTER TABLE auth_user ADD username CHAR(128) UNIQUE;',), **b={})"
p208
sg89
S'execute'
p209
sa(dp210
g66
S'/home/nikhil/Desktop/itws project/web2py/gluon/dal.py'
p211
sg68
(dp212
S'a'
S"('ALTER TABLE auth_user ADD username CHAR(128) UNIQUE;',)"
p213
sS'b'
g21
sS'self'
p214
S'<gluon.dal.SQLiteAdapter object>'
p215
sS'ret'
p216
g95
sS'self.cursor'
p217
S'<sqlite3.Cursor object>'
p218
sS'command'
p219
S"'ALTER TABLE auth_user ADD username CHAR(128) UNIQUE;'"
p220
sS'self.cursor.execute'
p221
S'<built-in method execute of sqlite3.Cursor object>'
p222
ssg74
I1963
sg75
(dp223
I1958
S'            command = self.filter_sql_command(command)'
p224
sI1959
S'        if self.db._debug:'
p225
sI1960
S"            LOGGER.debug('SQL: %s' % command)"
p226
sI1961
S'        self.db._lastsql = command'
p227
sI1962
S'        t0 = time.time()'
p228
sI1963
S'        ret = self.cursor.execute(command, *a[1:], **b)'
p229
sI1964
S'        self.db._timings.append((command,time.time()-t0))'
p230
sI1965
S'        del self.db._timings[:-TIMINGSSIZE]'
p231
sI1966
S'        return ret'
p232
sI1967
S''
ssg87
S"(self=<gluon.dal.SQLiteAdapter object>, *a=('ALTER TABLE auth_user ADD username CHAR(128) UNIQUE;',), **b={})"
p233
sg89
S'log_execute'
p234
sasS'pyver'
p235
S'Python 2.7.5+: /usr/bin/python (prefix: /usr)'
p236
sS'session'
p237
g61
(S's\x1a\x00\x00\x00<div><table></table></div>'
tRp238
sS'etype'
p239
S"<class 'sqlite3.OperationalError'>"
p240
sS'date'
p241
S'Thu Mar 27 23:03:49 2014'
p242
sS'response'
p243
g61
(S's\xcf\x16\x00\x00<div><table><tr><td style="font-weight:bold;vertical-align:top;">body</td><td style="vertical-align:top;">:</td><td><div>&lt;cStringIO.StringO object at 0x7f5354255ce0&gt;</div></td></tr><tr><td style="font-weight:bold;vertical-align:top;">cookies</td><td style="vertical-align:top;">:</td><td><div><table><tr><td style="font-weight:bold;vertical-align:top;">session_id_nikhil</td><td style="vertical-align:top;">:</td><td><div>127.0.0.1-184e09ab-bab6-4b0b-9e95-509e6e22b6a5<table><tr><td style="font-weight:bold;vertical-align:top;">comment</td><td style="vertical-align:top;">:</td><td><div></div></td></tr><tr><td style="font-weight:bold;vertical-align:top;">domain</td><td style="vertical-align:top;">:</td><td><div></div></td></tr><tr><td style="font-weight:bold;vertical-align:top;">expires</td><td style="vertical-align:top;">:</td><td><div></div></td></tr><tr><td style="font-weight:bold;vertical-align:top;">httponly</td><td style="vertical-align:top;">:</td><td><div></div></td></tr><tr><td style="font-weight:bold;vertical-align:top;">max-age</td><td style="vertical-align:top;">:</td><td><div></div></td></tr><tr><td style="font-weight:bold;vertical-align:top;">path</td><td style="vertical-align:top;">:</td><td><div>/</div></td></tr><tr><td style="font-weight:bold;vertical-align:top;">secure</td><td style="vertical-align:top;">:</td><td><div></div></td></tr><tr><td style="font-weight:bold;vertical-align:top;">version</td><td style="vertical-align:top;">:</td><td><div></div></td></tr></table></div></td></tr></table></div></td></tr><tr><td style="font-weight:bold;vertical-align:top;">delimiters</td><td style="vertical-align:top;">:</td><td><div><table><tr><td><div>{{</div></td></tr><tr><td><div>}}</div></td></tr></table></div></td></tr><tr><td style="font-weight:bold;vertical-align:top;">files</td><td style="vertical-align:top;">:</td><td><div><table></table></div></td></tr><tr><td style="font-weight:bold;vertical-align:top;">flash</td><td style="vertical-align:top;">:</td><td><div></div></td></tr><tr><td style="font-weight:bold;vertical-align:top;">generic_patterns</td><td style="vertical-align:top;">:</td><td><div><table></table></div></td></tr><tr><td style="font-weight:bold;vertical-align:top;">headers</td><td style="vertical-align:top;">:</td><td><div><table><tr><td style="font-weight:bold;vertical-align:top;">X-Powered-By</td><td style="vertical-align:top;">:</td><td><div>web2py</div></td></tr></table></div></td></tr><tr><td style="font-weight:bold;vertical-align:top;">menu</td><td style="vertical-align:top;">:</td><td><div><table></table></div></td></tr><tr><td style="font-weight:bold;vertical-align:top;">meta</td><td style="vertical-align:top;">:</td><td><div><table></table></div></td></tr><tr><td style="font-weight:bold;vertical-align:top;">models_to_run</td><td style="vertical-align:top;">:</td><td><div><table><tr><td><div>^\\w+\\.py$</div></td></tr><tr><td><div>^default/\\w+\\.py$</div></td></tr><tr><td><div>^default/user/\\w+\\.py$</div></td></tr></table></div></td></tr><tr><td style="font-weight:bold;vertical-align:top;">postprocessing</td><td style="vertical-align:top;">:</td><td><div><table></table></div></td></tr><tr><td style="font-weight:bold;vertical-align:top;">session_client</td><td style="vertical-align:top;">:</td><td><div>127.0.0.1</div></td></tr><tr><td style="font-weight:bold;vertical-align:top;">session_cookie_compression_level</td><td style="vertical-align:top;">:</td><td><div>None</div></td></tr><tr><td style="font-weight:bold;vertical-align:top;">session_cookie_expires</td><td style="vertical-align:top;">:</td><td><div>None</div></td></tr><tr><td style="font-weight:bold;vertical-align:top;">session_cookie_key</td><td style="vertical-align:top;">:</td><td><div>None</div></td></tr><tr><td style="font-weight:bold;vertical-align:top;">session_data_name</td><td style="vertical-align:top;">:</td><td><div>session_data_nikhil</div></td></tr><tr><td style="font-weight:bold;vertical-align:top;">session_file</td><td style="vertical-align:top;">:</td><td><div>&lt;open file &#x27;/home/nikhil/Desktop/itws project/web2py/applications/nikhil/sessions/127.0.0.1-184e09ab-bab6-4b0b-9e95-509e6e22b6a5&#x27;, mode &#x27;rb+&#x27; at 0x7f533c0726f0&gt;</div></td></tr><tr><td style="font-weight:bold;vertical-align:top;">session_filename</td><td style="vertical-align:top;">:</td><td><div>/home/nikhil/Desktop/itws project/web2py/applications/nikhil/sessions/127.0.0.1-184e09ab-bab6-4b0b-9e95-509e6e22b6a5</div></td></tr><tr><td style="font-weight:bold;vertical-align:top;">session_hash</td><td style="vertical-align:top;">:</td><td><div>0695fa47653d5acef116ca348e93afe7</div></td></tr><tr><td style="font-weight:bold;vertical-align:top;">session_id</td><td style="vertical-align:top;">:</td><td><div>127.0.0.1-184e09ab-bab6-4b0b-9e95-509e6e22b6a5</div></td></tr><tr><td style="font-weight:bold;vertical-align:top;">session_id_name</td><td style="vertical-align:top;">:</td><td><div>session_id_nikhil</div></td></tr><tr><td style="font-weight:bold;vertical-align:top;">session_locked</td><td style="vertical-align:top;">:</td><td><div>True</div></td></tr><tr><td style="font-weight:bold;vertical-align:top;">session_masterapp</td><td style="vertical-align:top;">:</td><td><div>nikhil</div></td></tr><tr><td style="font-weight:bold;vertical-align:top;">session_new</td><td style="vertical-align:top;">:</td><td><div>False</div></td></tr><tr><td style="font-weight:bold;vertical-align:top;">session_storage_type</td><td style="vertical-align:top;">:</td><td><div>file</div></td></tr><tr><td style="font-weight:bold;vertical-align:top;">status</td><td style="vertical-align:top;">:</td><td><div>200</div></td></tr><tr><td style="font-weight:bold;vertical-align:top;">view</td><td style="vertical-align:top;">:</td><td><div>default/user.html</div></td></tr></table></div>'
tRp244
sS'locals'
p245
(dp246
S'a'
S"('ALTER TABLE auth_user ADD username CHAR(128) UNIQUE;',)"
p247
sS'self'
p248
S'<gluon.dal.SQLiteAdapter object>'
p249
sS'b'
g21
sS'command'
p250
S"'ALTER TABLE auth_user ADD username CHAR(128) UNIQUE;'"
p251
sS't0'
p252
S'1395941629.589481'
p253
sssS'traceback'
p254
S'Traceback (most recent call last):\n  File "/home/nikhil/Desktop/itws project/web2py/gluon/restricted.py", line 217, in restricted\n    exec ccode in environment\n  File "/home/nikhil/Desktop/itws project/web2py/applications/nikhil/models/db.py", line 25, in <module>\n    writable=False, readable=False))\n  File "/home/nikhil/Desktop/itws project/web2py/gluon/dal.py", line 8223, in define_table\n    table = self.lazy_define_table(tablename,*fields,**args)\n  File "/home/nikhil/Desktop/itws project/web2py/gluon/dal.py", line 8260, in lazy_define_table\n    polymodel=polymodel)\n  File "/home/nikhil/Desktop/itws project/web2py/gluon/dal.py", line 1132, in create_table\n    fake_migrate=fake_migrate\n  File "/home/nikhil/Desktop/itws project/web2py/gluon/dal.py", line 1245, in migrate_table\n    self.execute(sub_query)\n  File "/home/nikhil/Desktop/itws project/web2py/gluon/dal.py", line 1969, in execute\n    return self.log_execute(*a, **b)\n  File "/home/nikhil/Desktop/itws project/web2py/gluon/dal.py", line 1963, in log_execute\n    ret = self.cursor.execute(command, *a[1:], **b)\nOperationalError: Cannot add a UNIQUE column\n'
p255
s.